GAS LISTING /tmp/ccQ54R4y.s 			page 1


   1              		.file	"ConsoleHandler.cpp"
   2              		.option pic
   3              		.option norelax
   4              		.text
   5              	.Ltext0:
   6              		.align	2
   7              		.globl	_ZN14ConsoleHandler10initializeEv
   9              	_ZN14ConsoleHandler10initializeEv:
  10              	.LFB31:
  11              		.file 1 "src/ConsoleHandler.cpp"
   1:src/ConsoleHandler.cpp **** #include "../h/ConsoleHandler.hpp"
   2:src/ConsoleHandler.cpp **** #include "../h/TCB.hpp"
   3:src/ConsoleHandler.cpp **** #include "../h/Riscv.h"
   4:src/ConsoleHandler.cpp **** 
   5:src/ConsoleHandler.cpp **** ConsoleBuffer* ConsoleHandler::inputBuffer = nullptr;
   6:src/ConsoleHandler.cpp **** ConsoleBuffer* ConsoleHandler::outputBuffer = nullptr;
   7:src/ConsoleHandler.cpp **** bool ConsoleHandler::working;
   8:src/ConsoleHandler.cpp **** 
   9:src/ConsoleHandler.cpp **** void ConsoleHandler::initialize() {
  12              		.loc 1 9 35
  13              		.cfi_startproc
  14 0000 130101FE 		addi	sp,sp,-32
  15              		.cfi_def_cfa_offset 32
  16 0004 233C1100 		sd	ra,24(sp)
  17 0008 23388100 		sd	s0,16(sp)
  18 000c 23349100 		sd	s1,8(sp)
  19              		.cfi_offset 1, -8
  20              		.cfi_offset 8, -16
  21              		.cfi_offset 9, -24
  22 0010 13040102 		addi	s0,sp,32
  23              		.cfi_def_cfa 8, 0
  10:src/ConsoleHandler.cpp ****     inputBuffer = ConsoleBuffer::createBuffer(512);
  24              		.loc 1 10 5
  25              		.loc 1 10 46 is_stmt 0
  26 0014 13050020 		li	a0,512
  27 0018 97000000 		call	_ZN13ConsoleBuffer12createBufferEi@plt
  27      E7800000 
  28              	.LVL0:
  29              		.loc 1 10 17
  30 0020 97040000 		lla	s1,.LANCHOR0
  30      93840400 
  31 0028 23B0A400 		sd	a0,0(s1)
  11:src/ConsoleHandler.cpp ****     outputBuffer = ConsoleBuffer::createBuffer(512);
  32              		.loc 1 11 5 is_stmt 1
  33              		.loc 1 11 47 is_stmt 0
  34 002c 13050020 		li	a0,512
  35 0030 97000000 		call	_ZN13ConsoleBuffer12createBufferEi@plt
  35      E7800000 
  36              	.LVL1:
  37              		.loc 1 11 18
  38 0038 23B4A400 		sd	a0,8(s1)
  12:src/ConsoleHandler.cpp ****     working = true;
  39              		.loc 1 12 5 is_stmt 1
  40              		.loc 1 12 13 is_stmt 0
  41 003c 93071000 		li	a5,1
  42 0040 2388F400 		sb	a5,16(s1)
  13:src/ConsoleHandler.cpp **** }
GAS LISTING /tmp/ccQ54R4y.s 			page 2


  43              		.loc 1 13 1
  44 0044 83308101 		ld	ra,24(sp)
  45              		.cfi_restore 1
  46 0048 03340101 		ld	s0,16(sp)
  47              		.cfi_restore 8
  48              		.cfi_def_cfa 2, 32
  49 004c 83348100 		ld	s1,8(sp)
  50              		.cfi_restore 9
  51 0050 13010102 		addi	sp,sp,32
  52              		.cfi_def_cfa_offset 0
  53 0054 67800000 		jr	ra
  54              		.cfi_endproc
  55              	.LFE31:
  57              		.align	2
  58              		.globl	_ZN14ConsoleHandler11handleInputEv
  60              	_ZN14ConsoleHandler11handleInputEv:
  61              	.LFB32:
  14:src/ConsoleHandler.cpp **** 
  15:src/ConsoleHandler.cpp **** void ConsoleHandler::handleInput() {
  62              		.loc 1 15 36 is_stmt 1
  63              		.cfi_startproc
  16:src/ConsoleHandler.cpp ****     char c = *((char*)CONSOLE_RX_DATA);
  64              		.loc 1 16 5
  65              		.loc 1 16 14 is_stmt 0
  66 0058 97070000 		la	a5,CONSOLE_RX_DATA
  66      83B70700 
  67 0060 83B70700 		ld	a5,0(a5)
  68              		.loc 1 16 10
  69 0064 83C50700 		lbu	a1,0(a5)
  70              	.LVL2:
  17:src/ConsoleHandler.cpp ****     if(c == '\r')
  71              		.loc 1 17 5 is_stmt 1
  72 0068 9307D000 		li	a5,13
  73 006c 6380F504 		beq	a1,a5,.L11
  74              	.LVL3:
  75              	.L4:
  18:src/ConsoleHandler.cpp ****         c = '\n';
  19:src/ConsoleHandler.cpp ****     if(inputBuffer->getCurrentSize() == inputBuffer->getMaxSize())
  76              		.loc 1 19 5
  77              		.loc 1 19 35 is_stmt 0
  78 0070 17050000 		ld	a0,.LANCHOR0
  78      03350500 
  79              	.LVL4:
  80              	.LBB13:
  81              	.LBB14:
  82              		.file 2 "src/../h/ConsoleBuffer.hpp"
   1:src/../h/ConsoleBuffer.hpp **** 
   2:src/../h/ConsoleBuffer.hpp **** #ifndef PROJECT_BASE_V1_1_CONSOLEBUFFER_HPP
   3:src/../h/ConsoleBuffer.hpp **** #define PROJECT_BASE_V1_1_CONSOLEBUFFER_HPP
   4:src/../h/ConsoleBuffer.hpp **** 
   5:src/../h/ConsoleBuffer.hpp **** #include "Sem.hpp"
   6:src/../h/ConsoleBuffer.hpp **** 
   7:src/../h/ConsoleBuffer.hpp **** class ConsoleBuffer{
   8:src/../h/ConsoleBuffer.hpp **** 
   9:src/../h/ConsoleBuffer.hpp **** public:
  10:src/../h/ConsoleBuffer.hpp **** 
  11:src/../h/ConsoleBuffer.hpp ****     char get();
GAS LISTING /tmp/ccQ54R4y.s 			page 3


  12:src/../h/ConsoleBuffer.hpp **** 
  13:src/../h/ConsoleBuffer.hpp ****     void put(char c);
  14:src/../h/ConsoleBuffer.hpp **** 
  15:src/../h/ConsoleBuffer.hpp ****     char geta();
  16:src/../h/ConsoleBuffer.hpp **** 
  17:src/../h/ConsoleBuffer.hpp ****     void puta(char c);
  18:src/../h/ConsoleBuffer.hpp **** 
  19:src/../h/ConsoleBuffer.hpp ****     int getCurrentSize() { return currSize; }
  83              		.loc 2 19 28 is_stmt 1
  84              		.loc 2 19 35 is_stmt 0
  85 0078 0327C500 		lw	a4,12(a0)
  86              	.LVL5:
  87              	.LBE14:
  88              	.LBE13:
  89              	.LBB15:
  90              	.LBB16:
  20:src/../h/ConsoleBuffer.hpp **** 
  21:src/../h/ConsoleBuffer.hpp ****     int getMaxSize() { return maxSize; }
  91              		.loc 2 21 24 is_stmt 1
  92              		.loc 2 21 31 is_stmt 0
  93 007c 83270500 		lw	a5,0(a0)
  94              	.LVL6:
  95              	.LBE16:
  96              	.LBE15:
  97              		.loc 1 19 5
  98 0080 630AF702 		beq	a4,a5,.L8
  15:src/ConsoleHandler.cpp ****     char c = *((char*)CONSOLE_RX_DATA);
  99              		.loc 1 15 36
 100 0084 130101FF 		addi	sp,sp,-16
 101              		.cfi_def_cfa_offset 16
 102 0088 23341100 		sd	ra,8(sp)
 103 008c 23308100 		sd	s0,0(sp)
 104              		.cfi_offset 1, -8
 105              		.cfi_offset 8, -16
 106 0090 13040101 		addi	s0,sp,16
 107              		.cfi_def_cfa 8, 0
  20:src/ConsoleHandler.cpp ****         return;
  21:src/ConsoleHandler.cpp ****     inputBuffer->put(c);
 108              		.loc 1 21 5 is_stmt 1
 109              		.loc 1 21 21 is_stmt 0
 110 0094 97000000 		call	_ZN13ConsoleBuffer3putEc@plt
 110      E7800000 
 111              	.LVL7:
  22:src/ConsoleHandler.cpp **** }
 112              		.loc 1 22 1
 113 009c 83308100 		ld	ra,8(sp)
 114              		.cfi_restore 1
 115 00a0 03340100 		ld	s0,0(sp)
 116              		.cfi_restore 8
 117              		.cfi_def_cfa 2, 16
 118 00a4 13010101 		addi	sp,sp,16
 119              		.cfi_def_cfa_offset 0
 120 00a8 67800000 		jr	ra
 121              	.LVL8:
 122              	.L11:
  18:src/ConsoleHandler.cpp ****     if(inputBuffer->getCurrentSize() == inputBuffer->getMaxSize())
 123              		.loc 1 18 11
GAS LISTING /tmp/ccQ54R4y.s 			page 4


 124 00ac 9305A000 		li	a1,10
 125              	.LVL9:
 126 00b0 6FF01FFC 		j	.L4
 127              	.LVL10:
 128              	.L8:
 129 00b4 67800000 		ret
 130              		.cfi_endproc
 131              	.LFE32:
 133              		.align	2
 134              		.globl	_ZN14ConsoleHandler18handleOutputThreadEPv
 136              	_ZN14ConsoleHandler18handleOutputThreadEPv:
 137              	.LFB33:
  23:src/ConsoleHandler.cpp **** 
  24:src/ConsoleHandler.cpp **** void ConsoleHandler::handleOutputThread(void *arg) {
 138              		.loc 1 24 52 is_stmt 1
 139              		.cfi_startproc
 140              	.LVL11:
 141 00b8 130101FE 		addi	sp,sp,-32
 142              		.cfi_def_cfa_offset 32
 143 00bc 233C1100 		sd	ra,24(sp)
 144 00c0 23388100 		sd	s0,16(sp)
 145              		.cfi_offset 1, -8
 146              		.cfi_offset 8, -16
 147 00c4 13040102 		addi	s0,sp,32
 148              		.cfi_def_cfa 8, 0
 149 00c8 6F008004 		j	.L13
 150              	.LVL12:
 151              	.L14:
  25:src/ConsoleHandler.cpp ****     while(true){
  26:src/ConsoleHandler.cpp ****         if(done()){
  27:src/ConsoleHandler.cpp ****             TCB::running->setFinished(true);
  28:src/ConsoleHandler.cpp ****             TCB::dispatch();
  29:src/ConsoleHandler.cpp ****         }
  30:src/ConsoleHandler.cpp ****         else if(*((char*)CONSOLE_STATUS)&CONSOLE_TX_STATUS_BIT){
 152              		.loc 1 30 14
 153              	.LBB17:
 154              	.LBB18:
 155              		.loc 1 30 17 is_stmt 0
 156 00cc 97070000 		la	a5,CONSOLE_STATUS
 156      83B70700 
 157 00d4 83B70700 		ld	a5,0(a5)
 158 00d8 83C70700 		lbu	a5,0(a5)
 159              		.loc 1 30 14
 160 00dc 93F70702 		andi	a5,a5,32
 161 00e0 63860706 		beqz	a5,.L16
 162              	.LBB19:
  31:src/ConsoleHandler.cpp ****             volatile char c = outputBuffer->get();
 163              		.loc 1 31 13 is_stmt 1
 164              		.loc 1 31 48 is_stmt 0
 165 00e4 17050000 		ld	a0,.LANCHOR0+8
 165      03350500 
 166 00ec 97000000 		call	_ZN13ConsoleBuffer3getEv@plt
 166      E7800000 
 167              	.LVL13:
 168              		.loc 1 31 49
 169 00f4 A307A4FE 		sb	a0,-17(s0)
  32:src/ConsoleHandler.cpp ****             *((volatile char *)CONSOLE_TX_DATA) = c;
GAS LISTING /tmp/ccQ54R4y.s 			page 5


 170              		.loc 1 32 13 is_stmt 1
 171 00f8 97070000 		la	a5,CONSOLE_TX_DATA
 171      83B70700 
 172 0100 03B70700 		ld	a4,0(a5)
 173              		.loc 1 32 49 is_stmt 0
 174 0104 8347F4FE 		lbu	a5,-17(s0)
 175 0108 93F7F70F 		andi	a5,a5,0xff
 176 010c 2300F700 		sb	a5,0(a4)
 177              	.L13:
 178              	.LBE19:
 179              	.LBE18:
 180              	.LBE17:
  25:src/ConsoleHandler.cpp ****     while(true){
 181              		.loc 1 25 5 is_stmt 1
  26:src/ConsoleHandler.cpp ****             TCB::running->setFinished(true);
 182              		.loc 1 26 9
 183              	.LBB25:
 184              	.LBB20:
 185              	.LBB21:
 186              		.file 3 "src/../h/ConsoleHandler.hpp"
   1:src/../h/ConsoleHandler.hpp **** 
   2:src/../h/ConsoleHandler.hpp **** #ifndef PROJECT_BASE_V1_1_CONSOLEHANDLER_HPP
   3:src/../h/ConsoleHandler.hpp **** #define PROJECT_BASE_V1_1_CONSOLEHANDLER_HPP
   4:src/../h/ConsoleHandler.hpp **** 
   5:src/../h/ConsoleHandler.hpp **** #include "ConsoleBuffer.hpp"
   6:src/../h/ConsoleHandler.hpp **** #include "../lib/hw.h"
   7:src/../h/ConsoleHandler.hpp **** 
   8:src/../h/ConsoleHandler.hpp **** class ConsoleHandler{
   9:src/../h/ConsoleHandler.hpp **** 
  10:src/../h/ConsoleHandler.hpp **** public:
  11:src/../h/ConsoleHandler.hpp **** 
  12:src/../h/ConsoleHandler.hpp ****     static void handleOutputThread(void* arg);
  13:src/../h/ConsoleHandler.hpp **** 
  14:src/../h/ConsoleHandler.hpp ****     static void handleInput();
  15:src/../h/ConsoleHandler.hpp **** 
  16:src/../h/ConsoleHandler.hpp ****     static void initialize();
  17:src/../h/ConsoleHandler.hpp **** 
  18:src/../h/ConsoleHandler.hpp ****     static void disable() { working = false; }
  19:src/../h/ConsoleHandler.hpp **** 
  20:src/../h/ConsoleHandler.hpp ****     static void free();
  21:src/../h/ConsoleHandler.hpp **** 
  22:src/../h/ConsoleHandler.hpp ****     static bool done() { return !working && outputBuffer->currSize == 0; }
 187              		.loc 3 22 26
 188              		.loc 3 22 33 is_stmt 0
 189 0110 97070000 		lbu	a5,.LANCHOR0+16
 189      83C70700 
 190              		.loc 3 22 42
 191 0118 E39A07FA 		bnez	a5,.L14
 192              		.loc 3 22 59
 193 011c 97070000 		ld	a5,.LANCHOR0+8
 193      83B70700 
 194 0124 83A7C700 		lw	a5,12(a5)
 195              		.loc 3 22 42
 196 0128 E39207FA 		bnez	a5,.L14
 197              	.LBE21:
 198              	.LBE20:
  27:src/ConsoleHandler.cpp ****             TCB::dispatch();
GAS LISTING /tmp/ccQ54R4y.s 			page 6


 199              		.loc 1 27 13 is_stmt 1
  27:src/ConsoleHandler.cpp ****             TCB::dispatch();
 200              		.loc 1 27 38 is_stmt 0
 201 012c 97070000 		la	a5,_ZN3TCB7runningE
 201      83B70700 
 202 0134 83B70700 		ld	a5,0(a5)
 203              	.LVL14:
 204              	.LBB22:
 205              	.LBB23:
 206              		.file 4 "src/../h/TCB.hpp"
   1:src/../h/TCB.hpp **** 
   2:src/../h/TCB.hpp **** #ifndef PROJECT_BASE_V1_1_TCB_HPP
   3:src/../h/TCB.hpp **** #define PROJECT_BASE_V1_1_TCB_HPP
   4:src/../h/TCB.hpp **** #include "../lib/hw.h"
   5:src/../h/TCB.hpp **** #include "../h/List.hpp"
   6:src/../h/TCB.hpp **** 
   7:src/../h/TCB.hpp **** class TCB{
   8:src/../h/TCB.hpp **** 
   9:src/../h/TCB.hpp **** public:
  10:src/../h/TCB.hpp ****     using Body = void(*)(void*);
  11:src/../h/TCB.hpp **** 
  12:src/../h/TCB.hpp ****     bool isFinished() const { return finished; }
  13:src/../h/TCB.hpp **** 
  14:src/../h/TCB.hpp ****     void setFinished(bool finished) { this->finished = finished; }
 207              		.loc 4 14 39 is_stmt 1
 208              		.loc 4 14 54 is_stmt 0
 209 0138 13071000 		li	a4,1
 210 013c 2384E702 		sb	a4,40(a5)
 211              	.LVL15:
 212              	.LBE23:
 213              	.LBE22:
  28:src/ConsoleHandler.cpp ****         }
 214              		.loc 1 28 13 is_stmt 1
  28:src/ConsoleHandler.cpp ****         }
 215              		.loc 1 28 26 is_stmt 0
 216 0140 97000000 		call	_ZN3TCB8dispatchEv@plt
 216      E7800000 
 217              	.LVL16:
 218 0148 6FF09FFC 		j	.L13
 219              	.L16:
 220              	.LBB24:
  33:src/ConsoleHandler.cpp ****         }
  34:src/ConsoleHandler.cpp ****         else
  35:src/ConsoleHandler.cpp ****             TCB::dispatch();
 221              		.loc 1 35 13 is_stmt 1
 222              		.loc 1 35 26 is_stmt 0
 223 014c 97000000 		call	_ZN3TCB8dispatchEv@plt
 223      E7800000 
 224              	.LVL17:
 225 0154 6FF0DFFB 		j	.L13
 226              	.LBE24:
 227              	.LBE25:
 228              		.cfi_endproc
 229              	.LFE33:
 231              		.align	2
 232              		.globl	_ZN14ConsoleHandler4freeEv
 234              	_ZN14ConsoleHandler4freeEv:
GAS LISTING /tmp/ccQ54R4y.s 			page 7


 235              	.LFB34:
  36:src/ConsoleHandler.cpp ****     }
  37:src/ConsoleHandler.cpp **** }
  38:src/ConsoleHandler.cpp **** 
  39:src/ConsoleHandler.cpp **** void ConsoleHandler::free() {
 236              		.loc 1 39 29 is_stmt 1
 237              		.cfi_startproc
 238 0158 130101FE 		addi	sp,sp,-32
 239              		.cfi_def_cfa_offset 32
 240 015c 233C1100 		sd	ra,24(sp)
 241 0160 23388100 		sd	s0,16(sp)
 242 0164 23349100 		sd	s1,8(sp)
 243              		.cfi_offset 1, -8
 244              		.cfi_offset 8, -16
 245              		.cfi_offset 9, -24
 246 0168 13040102 		addi	s0,sp,32
 247              		.cfi_def_cfa 8, 0
  40:src/ConsoleHandler.cpp ****     ConsoleBuffer::free(inputBuffer);
 248              		.loc 1 40 5
 249              		.loc 1 40 24 is_stmt 0
 250 016c 97040000 		lla	s1,.LANCHOR0
 250      93840400 
 251 0174 03B50400 		ld	a0,0(s1)
 252 0178 97000000 		call	_ZN13ConsoleBuffer4freeEPS_@plt
 252      E7800000 
 253              	.LVL18:
  41:src/ConsoleHandler.cpp ****     ConsoleBuffer::free(outputBuffer);
 254              		.loc 1 41 5 is_stmt 1
 255              		.loc 1 41 24 is_stmt 0
 256 0180 03B58400 		ld	a0,8(s1)
 257 0184 97000000 		call	_ZN13ConsoleBuffer4freeEPS_@plt
 257      E7800000 
 258              	.LVL19:
  42:src/ConsoleHandler.cpp **** }
 259              		.loc 1 42 1
 260 018c 83308101 		ld	ra,24(sp)
 261              		.cfi_restore 1
 262 0190 03340101 		ld	s0,16(sp)
 263              		.cfi_restore 8
 264              		.cfi_def_cfa 2, 32
 265 0194 83348100 		ld	s1,8(sp)
 266              		.cfi_restore 9
 267 0198 13010102 		addi	sp,sp,32
 268              		.cfi_def_cfa_offset 0
 269 019c 67800000 		jr	ra
 270              		.cfi_endproc
 271              	.LFE34:
 273              		.align	2
 274              		.globl	_ZN14ConsoleHandler4putcEc
 276              	_ZN14ConsoleHandler4putcEc:
 277              	.LFB35:
  43:src/ConsoleHandler.cpp **** 
  44:src/ConsoleHandler.cpp **** void ConsoleHandler::putc(char c) {
 278              		.loc 1 44 35 is_stmt 1
 279              		.cfi_startproc
 280              	.LVL20:
 281 01a0 130101FF 		addi	sp,sp,-16
GAS LISTING /tmp/ccQ54R4y.s 			page 8


 282              		.cfi_def_cfa_offset 16
 283 01a4 23341100 		sd	ra,8(sp)
 284 01a8 23308100 		sd	s0,0(sp)
 285              		.cfi_offset 1, -8
 286              		.cfi_offset 8, -16
 287 01ac 13040101 		addi	s0,sp,16
 288              		.cfi_def_cfa 8, 0
 289 01b0 93050500 		mv	a1,a0
  45:src/ConsoleHandler.cpp ****     outputBuffer->put(c);
 290              		.loc 1 45 5
 291              		.loc 1 45 22 is_stmt 0
 292 01b4 17050000 		ld	a0,.LANCHOR0+8
 292      03350500 
 293              	.LVL21:
 294 01bc 97000000 		call	_ZN13ConsoleBuffer3putEc@plt
 294      E7800000 
 295              	.LVL22:
  46:src/ConsoleHandler.cpp **** }
 296              		.loc 1 46 1
 297 01c4 83308100 		ld	ra,8(sp)
 298              		.cfi_restore 1
 299 01c8 03340100 		ld	s0,0(sp)
 300              		.cfi_restore 8
 301              		.cfi_def_cfa 2, 16
 302 01cc 13010101 		addi	sp,sp,16
 303              		.cfi_def_cfa_offset 0
 304 01d0 67800000 		jr	ra
 305              		.cfi_endproc
 306              	.LFE35:
 308              		.align	2
 309              		.globl	_ZN14ConsoleHandler9putStringEPKc
 311              	_ZN14ConsoleHandler9putStringEPKc:
 312              	.LFB36:
  47:src/ConsoleHandler.cpp **** 
  48:src/ConsoleHandler.cpp **** void ConsoleHandler::putString(const char *s) {
 313              		.loc 1 48 47 is_stmt 1
 314              		.cfi_startproc
 315              	.LVL23:
 316 01d4 130101FE 		addi	sp,sp,-32
 317              		.cfi_def_cfa_offset 32
 318 01d8 233C1100 		sd	ra,24(sp)
 319 01dc 23388100 		sd	s0,16(sp)
 320 01e0 23349100 		sd	s1,8(sp)
 321 01e4 23302101 		sd	s2,0(sp)
 322              		.cfi_offset 1, -8
 323              		.cfi_offset 8, -16
 324              		.cfi_offset 9, -24
 325              		.cfi_offset 18, -32
 326 01e8 13040102 		addi	s0,sp,32
 327              		.cfi_def_cfa 8, 0
 328 01ec 13090500 		mv	s2,a0
  49:src/ConsoleHandler.cpp ****     for(int i = 0; s[i]; i++){
 329              		.loc 1 49 5
 330              	.LVL24:
 331              	.LBB26:
 332              		.loc 1 49 13 is_stmt 0
 333 01f0 93040000 		li	s1,0
GAS LISTING /tmp/ccQ54R4y.s 			page 9


 334              	.LVL25:
 335              	.L24:
 336              		.loc 1 49 23 is_stmt 1 discriminator 3
 337 01f4 B3079900 		add	a5,s2,s1
 338 01f8 83C50700 		lbu	a1,0(a5)
 339 01fc 638E0500 		beqz	a1,.L22
  50:src/ConsoleHandler.cpp ****         outputBuffer->put(s[i]);
 340              		.loc 1 50 9 discriminator 2
 341              		.loc 1 50 26 is_stmt 0 discriminator 2
 342 0200 17050000 		ld	a0,.LANCHOR0+8
 342      03350500 
 343 0208 97000000 		call	_ZN13ConsoleBuffer3putEc@plt
 343      E7800000 
 344              	.LVL26:
  49:src/ConsoleHandler.cpp ****     for(int i = 0; s[i]; i++){
 345              		.loc 1 49 5 is_stmt 1 discriminator 2
 346 0210 9B841400 		addiw	s1,s1,1
 347              	.LVL27:
 348 0214 6FF01FFE 		j	.L24
 349              	.LVL28:
 350              	.L22:
 351              	.LBE26:
  51:src/ConsoleHandler.cpp ****     }
  52:src/ConsoleHandler.cpp **** }
 352              		.loc 1 52 1 is_stmt 0
 353 0218 83308101 		ld	ra,24(sp)
 354              		.cfi_restore 1
 355 021c 03340101 		ld	s0,16(sp)
 356              		.cfi_restore 8
 357              		.cfi_def_cfa 2, 32
 358 0220 83348100 		ld	s1,8(sp)
 359              		.cfi_restore 9
 360              	.LVL29:
 361 0224 03390100 		ld	s2,0(sp)
 362              		.cfi_restore 18
 363              	.LVL30:
 364 0228 13010102 		addi	sp,sp,32
 365              		.cfi_def_cfa_offset 0
 366 022c 67800000 		jr	ra
 367              		.cfi_endproc
 368              	.LFE36:
 370              		.align	2
 371              		.globl	_ZN14ConsoleHandler8putULongEm
 373              	_ZN14ConsoleHandler8putULongEm:
 374              	.LFB37:
  53:src/ConsoleHandler.cpp **** 
  54:src/ConsoleHandler.cpp **** void ConsoleHandler::putULong(uint64 x) {
 375              		.loc 1 54 41 is_stmt 1
 376              		.cfi_startproc
 377              	.LVL31:
 378 0230 130101FA 		addi	sp,sp,-96
 379              		.cfi_def_cfa_offset 96
 380 0234 233C1104 		sd	ra,88(sp)
 381 0238 23388104 		sd	s0,80(sp)
 382 023c 23349104 		sd	s1,72(sp)
 383              		.cfi_offset 1, -8
 384              		.cfi_offset 8, -16
GAS LISTING /tmp/ccQ54R4y.s 			page 10


 385              		.cfi_offset 9, -24
 386 0240 13040106 		addi	s0,sp,96
 387              		.cfi_def_cfa 8, 0
  55:src/ConsoleHandler.cpp ****     uint64 a = x;
 388              		.loc 1 55 5
 389              	.LVL32:
  56:src/ConsoleHandler.cpp ****     if(a == 0){
 390              		.loc 1 56 5
 391 0244 63080502 		beqz	a0,.L34
  57:src/ConsoleHandler.cpp ****         outputBuffer->put('0');
  58:src/ConsoleHandler.cpp ****         return;
  59:src/ConsoleHandler.cpp ****     }
  60:src/ConsoleHandler.cpp ****     char buffer[64];
  61:src/ConsoleHandler.cpp ****     int i = 0;
 392              		.loc 1 61 9 is_stmt 0
 393 0248 93070000 		li	a5,0
 394              	.LVL33:
 395              	.L27:
  62:src/ConsoleHandler.cpp ****     while(a > 0){
 396              		.loc 1 62 5 is_stmt 1
 397              		.loc 1 62 13
 398 024c 63000504 		beqz	a0,.L29
 399              	.LBB27:
  63:src/ConsoleHandler.cpp ****         uint64 y = a%10 + 48;
 400              		.loc 1 63 9
 401              		.loc 1 63 21 is_stmt 0
 402 0250 9306A000 		li	a3,10
 403 0254 3377D502 		remu	a4,a0,a3
 404              		.loc 1 63 16
 405 0258 13070703 		addi	a4,a4,48
 406              	.LVL34:
  64:src/ConsoleHandler.cpp ****         a/=10;
 407              		.loc 1 64 9 is_stmt 1
 408              		.loc 1 64 10 is_stmt 0
 409 025c 3355D502 		divu	a0,a0,a3
 410              	.LVL35:
  65:src/ConsoleHandler.cpp ****         buffer[i++] = (char)y;
 411              		.loc 1 65 9 is_stmt 1
 412              		.loc 1 65 21 is_stmt 0
 413 0260 930604FE 		addi	a3,s0,-32
 414 0264 B386F600 		add	a3,a3,a5
 415 0268 2380E6FC 		sb	a4,-64(a3)
 416              		.loc 1 65 17
 417 026c 9B871700 		addiw	a5,a5,1
 418              	.LVL36:
 419              	.LBE27:
  62:src/ConsoleHandler.cpp ****         uint64 y = a%10 + 48;
 420              		.loc 1 62 5
 421 0270 6FF0DFFD 		j	.L27
 422              	.LVL37:
 423              	.L34:
  57:src/ConsoleHandler.cpp ****         return;
 424              		.loc 1 57 9 is_stmt 1
  57:src/ConsoleHandler.cpp ****         return;
 425              		.loc 1 57 26 is_stmt 0
 426 0274 93050003 		li	a1,48
 427 0278 17050000 		ld	a0,.LANCHOR0+8
GAS LISTING /tmp/ccQ54R4y.s 			page 11


 427      03350500 
 428              	.LVL38:
 429 0280 97000000 		call	_ZN13ConsoleBuffer3putEc@plt
 429      E7800000 
 430              	.LVL39:
  58:src/ConsoleHandler.cpp ****     }
 431              		.loc 1 58 9 is_stmt 1
 432 0288 6F004003 		j	.L26
 433              	.LVL40:
 434              	.L29:
  66:src/ConsoleHandler.cpp ****     }
  67:src/ConsoleHandler.cpp ****     i--;
 435              		.loc 1 67 5
 436              		.loc 1 67 6 is_stmt 0
 437 028c 9B87F7FF 		addiw	a5,a5,-1
 438              	.LVL41:
 439 0290 6F008002 		j	.L31
 440              	.LVL42:
 441              	.L35:
  68:src/ConsoleHandler.cpp ****     while(i>=0){
  69:src/ConsoleHandler.cpp ****         outputBuffer->put(buffer[i--]);
 442              		.loc 1 69 9 is_stmt 1
 443              		.loc 1 69 35 is_stmt 0
 444 0294 9B84F7FF 		addiw	s1,a5,-1
 445              	.LVL43:
 446              		.loc 1 69 26
 447 0298 130704FE 		addi	a4,s0,-32
 448 029c B307F700 		add	a5,a4,a5
 449              	.LVL44:
 450 02a0 83C507FC 		lbu	a1,-64(a5)
 451 02a4 17050000 		ld	a0,.LANCHOR0+8
 451      03350500 
 452 02ac 97000000 		call	_ZN13ConsoleBuffer3putEc@plt
 452      E7800000 
 453              	.LVL45:
 454              		.loc 1 69 35
 455 02b4 93870400 		mv	a5,s1
 456              	.L31:
 457              	.LVL46:
  68:src/ConsoleHandler.cpp ****     while(i>=0){
 458              		.loc 1 68 5 is_stmt 1
  68:src/ConsoleHandler.cpp ****     while(i>=0){
 459              		.loc 1 68 12
 460 02b8 E3DE07FC 		bgez	a5,.L35
 461              	.LVL47:
 462              	.L26:
  70:src/ConsoleHandler.cpp ****     }
  71:src/ConsoleHandler.cpp **** }
 463              		.loc 1 71 1 is_stmt 0
 464 02bc 83308105 		ld	ra,88(sp)
 465              		.cfi_restore 1
 466 02c0 03340105 		ld	s0,80(sp)
 467              		.cfi_restore 8
 468              		.cfi_def_cfa 2, 96
 469 02c4 83348104 		ld	s1,72(sp)
 470              		.cfi_restore 9
 471 02c8 13010106 		addi	sp,sp,96
GAS LISTING /tmp/ccQ54R4y.s 			page 12


 472              		.cfi_def_cfa_offset 0
 473 02cc 67800000 		jr	ra
 474              		.cfi_endproc
 475              	.LFE37:
 477              		.globl	_ZN14ConsoleHandler7workingE
 478              		.globl	_ZN14ConsoleHandler12outputBufferE
 479              		.globl	_ZN14ConsoleHandler11inputBufferE
 480              		.bss
 481              		.align	3
 482              		.set	.LANCHOR0,. + 0
 485              	_ZN14ConsoleHandler11inputBufferE:
 486 0000 00000000 		.zero	8
 486      00000000 
 489              	_ZN14ConsoleHandler12outputBufferE:
 490 0008 00000000 		.zero	8
 490      00000000 
 493              	_ZN14ConsoleHandler7workingE:
 494 0010 00       		.zero	1
 495              		.text
 496              	.Letext0:
 497              		.file 5 "src/../h/List.hpp"
 498              		.file 6 "src/../h/Sem.hpp"
 499              		.file 7 "src/../h/../lib/hw.h"
GAS LISTING /tmp/ccQ54R4y.s 			page 13

