GAS LISTING /tmp/cc9NmN95.s 			page 1


   1              		.file	"ConsoleBuffer.cpp"
   2              		.option pic
   3              		.option norelax
   4              		.text
   5              	.Ltext0:
   6              		.align	2
   7              		.globl	_ZN13ConsoleBuffer12createBufferEi
   9              	_ZN13ConsoleBuffer12createBufferEi:
  10              	.LFB15:
  11              		.file 1 "src/ConsoleBuffer.cpp"
   1:src/ConsoleBuffer.cpp **** #include "../h/ConsoleBuffer.hpp"
   2:src/ConsoleBuffer.cpp **** #include "../h/MemoryAllocator.hpp"
   3:src/ConsoleBuffer.cpp **** #include "../h/ConsoleHandler.hpp"
   4:src/ConsoleBuffer.cpp **** #include "../h/TCB.hpp"
   5:src/ConsoleBuffer.cpp **** #include "../h/syscall_c.hpp"
   6:src/ConsoleBuffer.cpp **** 
   7:src/ConsoleBuffer.cpp **** ConsoleBuffer *ConsoleBuffer::createBuffer(int size) {
  12              		.loc 1 7 54
  13              		.cfi_startproc
  14              	.LVL0:
  15 0000 130101FE 		addi	sp,sp,-32
  16              		.cfi_def_cfa_offset 32
  17 0004 233C1100 		sd	ra,24(sp)
  18 0008 23388100 		sd	s0,16(sp)
  19 000c 23349100 		sd	s1,8(sp)
  20 0010 23302101 		sd	s2,0(sp)
  21              		.cfi_offset 1, -8
  22              		.cfi_offset 8, -16
  23              		.cfi_offset 9, -24
  24              		.cfi_offset 18, -32
  25 0014 13040102 		addi	s0,sp,32
  26              		.cfi_def_cfa 8, 0
  27 0018 13090500 		mv	s2,a0
   8:src/ConsoleBuffer.cpp ****     ConsoleBuffer* b = (ConsoleBuffer*)MemoryAllocator::allocate(sizeof(ConsoleBuffer));
  28              		.loc 1 8 5
  29              		.loc 1 8 65 is_stmt 0
  30 001c 13058003 		li	a0,56
  31              	.LVL1:
  32 0020 97000000 		call	_ZN15MemoryAllocator8allocateEm@plt
  32      E7800000 
  33              	.LVL2:
  34 0028 93040500 		mv	s1,a0
  35              	.LVL3:
   9:src/ConsoleBuffer.cpp ****     b->maxSize = size;
  36              		.loc 1 9 5 is_stmt 1
  37              		.loc 1 9 16 is_stmt 0
  38 002c 23202501 		sw	s2,0(a0)
  10:src/ConsoleBuffer.cpp ****     b->head = -1;
  39              		.loc 1 10 5 is_stmt 1
  40              		.loc 1 10 13 is_stmt 0
  41 0030 9307F0FF 		li	a5,-1
  42 0034 2322F500 		sw	a5,4(a0)
  11:src/ConsoleBuffer.cpp ****     b->tail = 0;
  43              		.loc 1 11 5 is_stmt 1
  44              		.loc 1 11 13 is_stmt 0
  45 0038 23240500 		sw	zero,8(a0)
  12:src/ConsoleBuffer.cpp ****     b->currSize = 0;
GAS LISTING /tmp/cc9NmN95.s 			page 2


  46              		.loc 1 12 5 is_stmt 1
  47              		.loc 1 12 17 is_stmt 0
  48 003c 23260500 		sw	zero,12(a0)
  13:src/ConsoleBuffer.cpp ****     b->buf = (char*)MemoryAllocator::allocate(sizeof(char) * size);
  49              		.loc 1 13 5 is_stmt 1
  50              		.loc 1 13 46 is_stmt 0
  51 0040 13050900 		mv	a0,s2
  52 0044 97000000 		call	_ZN15MemoryAllocator8allocateEm@plt
  52      E7800000 
  53              	.LVL4:
  54              		.loc 1 13 12
  55 004c 23B8A400 		sd	a0,16(s1)
  14:src/ConsoleBuffer.cpp ****     b->mutexHead = Sem::createSemaphore(1);
  56              		.loc 1 14 5 is_stmt 1
  57              		.loc 1 14 40 is_stmt 0
  58 0050 13051000 		li	a0,1
  59 0054 97000000 		call	_ZN3Sem15createSemaphoreEj@plt
  59      E7800000 
  60              	.LVL5:
  61              		.loc 1 14 18
  62 005c 23BCA400 		sd	a0,24(s1)
  15:src/ConsoleBuffer.cpp ****     b->mutexTail = Sem::createSemaphore(1);
  63              		.loc 1 15 5 is_stmt 1
  64              		.loc 1 15 40 is_stmt 0
  65 0060 13051000 		li	a0,1
  66 0064 97000000 		call	_ZN3Sem15createSemaphoreEj@plt
  66      E7800000 
  67              	.LVL6:
  68              		.loc 1 15 18
  69 006c 23B0A402 		sd	a0,32(s1)
  16:src/ConsoleBuffer.cpp ****     b->itemsAvailable = Sem::createSemaphore(0);
  70              		.loc 1 16 5 is_stmt 1
  71              		.loc 1 16 45 is_stmt 0
  72 0070 13050000 		li	a0,0
  73 0074 97000000 		call	_ZN3Sem15createSemaphoreEj@plt
  73      E7800000 
  74              	.LVL7:
  75              		.loc 1 16 23
  76 007c 23B8A402 		sd	a0,48(s1)
  17:src/ConsoleBuffer.cpp ****     b->spaceAvailable = Sem::createSemaphore(size);
  77              		.loc 1 17 5 is_stmt 1
  78              		.loc 1 17 45 is_stmt 0
  79 0080 13050900 		mv	a0,s2
  80 0084 97000000 		call	_ZN3Sem15createSemaphoreEj@plt
  80      E7800000 
  81              	.LVL8:
  82              		.loc 1 17 23
  83 008c 23B4A402 		sd	a0,40(s1)
  18:src/ConsoleBuffer.cpp ****     return b;
  84              		.loc 1 18 5 is_stmt 1
  19:src/ConsoleBuffer.cpp **** }
  85              		.loc 1 19 1 is_stmt 0
  86 0090 13850400 		mv	a0,s1
  87 0094 83308101 		ld	ra,24(sp)
  88              		.cfi_restore 1
  89 0098 03340101 		ld	s0,16(sp)
  90              		.cfi_restore 8
GAS LISTING /tmp/cc9NmN95.s 			page 3


  91              		.cfi_def_cfa 2, 32
  92 009c 83348100 		ld	s1,8(sp)
  93              		.cfi_restore 9
  94              	.LVL9:
  95 00a0 03390100 		ld	s2,0(sp)
  96              		.cfi_restore 18
  97 00a4 13010102 		addi	sp,sp,32
  98              		.cfi_def_cfa_offset 0
  99 00a8 67800000 		jr	ra
 100              		.cfi_endproc
 101              	.LFE15:
 103              		.align	2
 104              		.globl	_ZN13ConsoleBuffer3putEc
 106              	_ZN13ConsoleBuffer3putEc:
 107              	.LFB16:
  20:src/ConsoleBuffer.cpp **** 
  21:src/ConsoleBuffer.cpp **** void ConsoleBuffer::put(char c) {
 108              		.loc 1 21 33 is_stmt 1
 109              		.cfi_startproc
 110              	.LVL10:
 111 00ac 130101FE 		addi	sp,sp,-32
 112              		.cfi_def_cfa_offset 32
 113 00b0 233C1100 		sd	ra,24(sp)
 114 00b4 23388100 		sd	s0,16(sp)
 115 00b8 23349100 		sd	s1,8(sp)
 116 00bc 23302101 		sd	s2,0(sp)
 117              		.cfi_offset 1, -8
 118              		.cfi_offset 8, -16
 119              		.cfi_offset 9, -24
 120              		.cfi_offset 18, -32
 121 00c0 13040102 		addi	s0,sp,32
 122              		.cfi_def_cfa 8, 0
 123 00c4 93040500 		mv	s1,a0
 124 00c8 13890500 		mv	s2,a1
  22:src/ConsoleBuffer.cpp ****     spaceAvailable->wait();
 125              		.loc 1 22 5
 126              		.loc 1 22 25 is_stmt 0
 127 00cc 03358502 		ld	a0,40(a0)
 128              	.LVL11:
 129 00d0 97000000 		call	_ZN3Sem4waitEv@plt
 129      E7800000 
 130              	.LVL12:
  23:src/ConsoleBuffer.cpp ****     mutexTail->wait();
 131              		.loc 1 23 5 is_stmt 1
 132              		.loc 1 23 20 is_stmt 0
 133 00d8 03B50402 		ld	a0,32(s1)
 134 00dc 97000000 		call	_ZN3Sem4waitEv@plt
 134      E7800000 
 135              	.LVL13:
  24:src/ConsoleBuffer.cpp ****     buf[tail] = c;
 136              		.loc 1 24 5 is_stmt 1
 137 00e4 83B70401 		ld	a5,16(s1)
 138              		.loc 1 24 9 is_stmt 0
 139 00e8 03A78400 		lw	a4,8(s1)
 140              		.loc 1 24 13
 141 00ec B387E700 		add	a5,a5,a4
 142              		.loc 1 24 15
GAS LISTING /tmp/cc9NmN95.s 			page 4


 143 00f0 23802701 		sb	s2,0(a5)
  25:src/ConsoleBuffer.cpp ****     tail = (tail + 1) % maxSize;
 144              		.loc 1 25 5 is_stmt 1
 145              		.loc 1 25 13 is_stmt 0
 146 00f4 83A78400 		lw	a5,8(s1)
 147              		.loc 1 25 18
 148 00f8 9B871700 		addiw	a5,a5,1
 149              		.loc 1 25 25
 150 00fc 03A70400 		lw	a4,0(s1)
 151              		.loc 1 25 23
 152 0100 BBE7E702 		remw	a5,a5,a4
 153              		.loc 1 25 10
 154 0104 23A4F400 		sw	a5,8(s1)
  26:src/ConsoleBuffer.cpp ****     currSize++;
 155              		.loc 1 26 5 is_stmt 1
 156 0108 83A7C400 		lw	a5,12(s1)
 157              		.loc 1 26 13 is_stmt 0
 158 010c 9B871700 		addiw	a5,a5,1
 159 0110 23A6F400 		sw	a5,12(s1)
  27:src/ConsoleBuffer.cpp ****     mutexTail->signal();
 160              		.loc 1 27 5 is_stmt 1
 161              		.loc 1 27 22 is_stmt 0
 162 0114 03B50402 		ld	a0,32(s1)
 163 0118 97000000 		call	_ZN3Sem6signalEv@plt
 163      E7800000 
 164              	.LVL14:
  28:src/ConsoleBuffer.cpp ****     itemsAvailable->signal();
 165              		.loc 1 28 5 is_stmt 1
 166              		.loc 1 28 27 is_stmt 0
 167 0120 03B50403 		ld	a0,48(s1)
 168 0124 97000000 		call	_ZN3Sem6signalEv@plt
 168      E7800000 
 169              	.LVL15:
  29:src/ConsoleBuffer.cpp **** }
 170              		.loc 1 29 1
 171 012c 83308101 		ld	ra,24(sp)
 172              		.cfi_restore 1
 173 0130 03340101 		ld	s0,16(sp)
 174              		.cfi_restore 8
 175              		.cfi_def_cfa 2, 32
 176 0134 83348100 		ld	s1,8(sp)
 177              		.cfi_restore 9
 178              	.LVL16:
 179 0138 03390100 		ld	s2,0(sp)
 180              		.cfi_restore 18
 181 013c 13010102 		addi	sp,sp,32
 182              		.cfi_def_cfa_offset 0
 183 0140 67800000 		jr	ra
 184              		.cfi_endproc
 185              	.LFE16:
 187              		.align	2
 188              		.globl	_ZN13ConsoleBuffer3getEv
 190              	_ZN13ConsoleBuffer3getEv:
 191              	.LFB17:
  30:src/ConsoleBuffer.cpp **** 
  31:src/ConsoleBuffer.cpp **** char ConsoleBuffer::get() {
 192              		.loc 1 31 27 is_stmt 1
GAS LISTING /tmp/cc9NmN95.s 			page 5


 193              		.cfi_startproc
 194              	.LVL17:
 195 0144 130101FE 		addi	sp,sp,-32
 196              		.cfi_def_cfa_offset 32
 197 0148 233C1100 		sd	ra,24(sp)
 198 014c 23388100 		sd	s0,16(sp)
 199 0150 23349100 		sd	s1,8(sp)
 200 0154 23302101 		sd	s2,0(sp)
 201              		.cfi_offset 1, -8
 202              		.cfi_offset 8, -16
 203              		.cfi_offset 9, -24
 204              		.cfi_offset 18, -32
 205 0158 13040102 		addi	s0,sp,32
 206              		.cfi_def_cfa 8, 0
 207 015c 93040500 		mv	s1,a0
  32:src/ConsoleBuffer.cpp ****     itemsAvailable->wait();
 208              		.loc 1 32 5
 209              		.loc 1 32 25 is_stmt 0
 210 0160 03350503 		ld	a0,48(a0)
 211              	.LVL18:
 212 0164 97000000 		call	_ZN3Sem4waitEv@plt
 212      E7800000 
 213              	.LVL19:
  33:src/ConsoleBuffer.cpp ****     mutexHead->wait();
 214              		.loc 1 33 5 is_stmt 1
 215              		.loc 1 33 20 is_stmt 0
 216 016c 03B58401 		ld	a0,24(s1)
 217 0170 97000000 		call	_ZN3Sem4waitEv@plt
 217      E7800000 
 218              	.LVL20:
  34:src/ConsoleBuffer.cpp ****     head = (head + 1) % maxSize;
 219              		.loc 1 34 5 is_stmt 1
 220              		.loc 1 34 13 is_stmt 0
 221 0178 83A74400 		lw	a5,4(s1)
 222              		.loc 1 34 18
 223 017c 9B871700 		addiw	a5,a5,1
 224              		.loc 1 34 25
 225 0180 03A70400 		lw	a4,0(s1)
 226              		.loc 1 34 23
 227 0184 BBE7E702 		remw	a5,a5,a4
 228 0188 1B870700 		sext.w	a4,a5
 229              		.loc 1 34 10
 230 018c 23A2F400 		sw	a5,4(s1)
  35:src/ConsoleBuffer.cpp ****     char ret = buf[head];
 231              		.loc 1 35 5 is_stmt 1
 232              		.loc 1 35 16 is_stmt 0
 233 0190 83B70401 		ld	a5,16(s1)
 234              		.loc 1 35 24
 235 0194 B387E700 		add	a5,a5,a4
 236              		.loc 1 35 10
 237 0198 03C90700 		lbu	s2,0(a5)
 238              	.LVL21:
  36:src/ConsoleBuffer.cpp ****     currSize--;
 239              		.loc 1 36 5 is_stmt 1
 240 019c 83A7C400 		lw	a5,12(s1)
 241              		.loc 1 36 13 is_stmt 0
 242 01a0 9B87F7FF 		addiw	a5,a5,-1
GAS LISTING /tmp/cc9NmN95.s 			page 6


 243 01a4 23A6F400 		sw	a5,12(s1)
  37:src/ConsoleBuffer.cpp ****     mutexHead->signal();
 244              		.loc 1 37 5 is_stmt 1
 245              		.loc 1 37 22 is_stmt 0
 246 01a8 03B58401 		ld	a0,24(s1)
 247 01ac 97000000 		call	_ZN3Sem6signalEv@plt
 247      E7800000 
 248              	.LVL22:
  38:src/ConsoleBuffer.cpp ****     spaceAvailable->signal();
 249              		.loc 1 38 5 is_stmt 1
 250              		.loc 1 38 27 is_stmt 0
 251 01b4 03B58402 		ld	a0,40(s1)
 252 01b8 97000000 		call	_ZN3Sem6signalEv@plt
 252      E7800000 
 253              	.LVL23:
  39:src/ConsoleBuffer.cpp ****     return ret;
 254              		.loc 1 39 5 is_stmt 1
  40:src/ConsoleBuffer.cpp **** }
 255              		.loc 1 40 1 is_stmt 0
 256 01c0 13050900 		mv	a0,s2
 257 01c4 83308101 		ld	ra,24(sp)
 258              		.cfi_restore 1
 259 01c8 03340101 		ld	s0,16(sp)
 260              		.cfi_restore 8
 261              		.cfi_def_cfa 2, 32
 262 01cc 83348100 		ld	s1,8(sp)
 263              		.cfi_restore 9
 264              	.LVL24:
 265 01d0 03390100 		ld	s2,0(sp)
 266              		.cfi_restore 18
 267              	.LVL25:
 268 01d4 13010102 		addi	sp,sp,32
 269              		.cfi_def_cfa_offset 0
 270 01d8 67800000 		jr	ra
 271              		.cfi_endproc
 272              	.LFE17:
 274              		.align	2
 275              		.globl	_ZN13ConsoleBuffer4freeEPS_
 277              	_ZN13ConsoleBuffer4freeEPS_:
 278              	.LFB18:
  41:src/ConsoleBuffer.cpp **** 
  42:src/ConsoleBuffer.cpp **** void ConsoleBuffer::free(ConsoleBuffer *cb) {
 279              		.loc 1 42 45 is_stmt 1
 280              		.cfi_startproc
 281              	.LVL26:
 282 01dc 130101FE 		addi	sp,sp,-32
 283              		.cfi_def_cfa_offset 32
 284 01e0 233C1100 		sd	ra,24(sp)
 285 01e4 23388100 		sd	s0,16(sp)
 286 01e8 23349100 		sd	s1,8(sp)
 287              		.cfi_offset 1, -8
 288              		.cfi_offset 8, -16
 289              		.cfi_offset 9, -24
 290 01ec 13040102 		addi	s0,sp,32
 291              		.cfi_def_cfa 8, 0
 292 01f0 93040500 		mv	s1,a0
  43:src/ConsoleBuffer.cpp ****     MemoryAllocator::free(cb->buf);
GAS LISTING /tmp/cc9NmN95.s 			page 7


 293              		.loc 1 43 5
 294              		.loc 1 43 26 is_stmt 0
 295 01f4 03350501 		ld	a0,16(a0)
 296              	.LVL27:
 297 01f8 97000000 		call	_ZN15MemoryAllocator4freeEPv@plt
 297      E7800000 
 298              	.LVL28:
  44:src/ConsoleBuffer.cpp ****     Sem::freeSemaphore(cb->itemsAvailable);
 299              		.loc 1 44 5 is_stmt 1
 300              		.loc 1 44 23 is_stmt 0
 301 0200 03B50403 		ld	a0,48(s1)
 302 0204 97000000 		call	_ZN3Sem13freeSemaphoreEPS_@plt
 302      E7800000 
 303              	.LVL29:
  45:src/ConsoleBuffer.cpp ****     Sem::freeSemaphore(cb->spaceAvailable);
 304              		.loc 1 45 5 is_stmt 1
 305              		.loc 1 45 23 is_stmt 0
 306 020c 03B58402 		ld	a0,40(s1)
 307 0210 97000000 		call	_ZN3Sem13freeSemaphoreEPS_@plt
 307      E7800000 
 308              	.LVL30:
  46:src/ConsoleBuffer.cpp ****     Sem::freeSemaphore(cb->mutexTail);
 309              		.loc 1 46 5 is_stmt 1
 310              		.loc 1 46 23 is_stmt 0
 311 0218 03B50402 		ld	a0,32(s1)
 312 021c 97000000 		call	_ZN3Sem13freeSemaphoreEPS_@plt
 312      E7800000 
 313              	.LVL31:
  47:src/ConsoleBuffer.cpp ****     Sem::freeSemaphore(cb->mutexHead);
 314              		.loc 1 47 5 is_stmt 1
 315              		.loc 1 47 23 is_stmt 0
 316 0224 03B58401 		ld	a0,24(s1)
 317 0228 97000000 		call	_ZN3Sem13freeSemaphoreEPS_@plt
 317      E7800000 
 318              	.LVL32:
  48:src/ConsoleBuffer.cpp ****     MemoryAllocator::free(cb);
 319              		.loc 1 48 5 is_stmt 1
 320              		.loc 1 48 26 is_stmt 0
 321 0230 13850400 		mv	a0,s1
 322 0234 97000000 		call	_ZN15MemoryAllocator4freeEPv@plt
 322      E7800000 
 323              	.LVL33:
  49:src/ConsoleBuffer.cpp **** }
 324              		.loc 1 49 1
 325 023c 83308101 		ld	ra,24(sp)
 326              		.cfi_restore 1
 327 0240 03340101 		ld	s0,16(sp)
 328              		.cfi_restore 8
 329              		.cfi_def_cfa 2, 32
 330 0244 83348100 		ld	s1,8(sp)
 331              		.cfi_restore 9
 332              	.LVL34:
 333 0248 13010102 		addi	sp,sp,32
 334              		.cfi_def_cfa_offset 0
 335 024c 67800000 		jr	ra
 336              		.cfi_endproc
 337              	.LFE18:
GAS LISTING /tmp/cc9NmN95.s 			page 8


 339              	.Letext0:
 340              		.file 2 "src/../h/List.hpp"
 341              		.file 3 "src/../h/TCB.hpp"
 342              		.file 4 "src/../h/Sem.hpp"
 343              		.file 5 "src/../h/ConsoleBuffer.hpp"
 344              		.file 6 "src/../h/../lib/hw.h"
 345              		.file 7 "src/../h/MemoryAllocator.hpp"
 346              		.file 8 "src/../h/syscall_c.hpp"
GAS LISTING /tmp/cc9NmN95.s 			page 9


DEFINED SYMBOLS
                            *ABS*:0000000000000000 ConsoleBuffer.cpp
     /tmp/cc9NmN95.s:9      .text:0000000000000000 _ZN13ConsoleBuffer12createBufferEi
     /tmp/cc9NmN95.s:13     .text:0000000000000000 .L0 
     /tmp/cc9NmN95.s:15     .text:0000000000000000 .L0 
     /tmp/cc9NmN95.s:16     .text:0000000000000004 .L0 
     /tmp/cc9NmN95.s:21     .text:0000000000000014 .L0 
     /tmp/cc9NmN95.s:22     .text:0000000000000014 .L0 
     /tmp/cc9NmN95.s:23     .text:0000000000000014 .L0 
     /tmp/cc9NmN95.s:24     .text:0000000000000014 .L0 
     /tmp/cc9NmN95.s:26     .text:0000000000000018 .L0 
     /tmp/cc9NmN95.s:29     .text:000000000000001c .L0 
     /tmp/cc9NmN95.s:30     .text:000000000000001c .L0 
     /tmp/cc9NmN95.s:37     .text:000000000000002c .L0 
     /tmp/cc9NmN95.s:38     .text:000000000000002c .L0 
     /tmp/cc9NmN95.s:40     .text:0000000000000030 .L0 
     /tmp/cc9NmN95.s:41     .text:0000000000000030 .L0 
     /tmp/cc9NmN95.s:44     .text:0000000000000038 .L0 
     /tmp/cc9NmN95.s:45     .text:0000000000000038 .L0 
     /tmp/cc9NmN95.s:47     .text:000000000000003c .L0 
     /tmp/cc9NmN95.s:48     .text:000000000000003c .L0 
     /tmp/cc9NmN95.s:50     .text:0000000000000040 .L0 
     /tmp/cc9NmN95.s:51     .text:0000000000000040 .L0 
     /tmp/cc9NmN95.s:55     .text:000000000000004c .L0 
     /tmp/cc9NmN95.s:57     .text:0000000000000050 .L0 
     /tmp/cc9NmN95.s:58     .text:0000000000000050 .L0 
     /tmp/cc9NmN95.s:62     .text:000000000000005c .L0 
     /tmp/cc9NmN95.s:64     .text:0000000000000060 .L0 
     /tmp/cc9NmN95.s:65     .text:0000000000000060 .L0 
     /tmp/cc9NmN95.s:69     .text:000000000000006c .L0 
     /tmp/cc9NmN95.s:71     .text:0000000000000070 .L0 
     /tmp/cc9NmN95.s:72     .text:0000000000000070 .L0 
     /tmp/cc9NmN95.s:76     .text:000000000000007c .L0 
     /tmp/cc9NmN95.s:78     .text:0000000000000080 .L0 
     /tmp/cc9NmN95.s:79     .text:0000000000000080 .L0 
     /tmp/cc9NmN95.s:83     .text:000000000000008c .L0 
     /tmp/cc9NmN95.s:85     .text:0000000000000090 .L0 
     /tmp/cc9NmN95.s:86     .text:0000000000000090 .L0 
     /tmp/cc9NmN95.s:88     .text:0000000000000098 .L0 
     /tmp/cc9NmN95.s:90     .text:000000000000009c .L0 
     /tmp/cc9NmN95.s:91     .text:000000000000009c .L0 
     /tmp/cc9NmN95.s:93     .text:00000000000000a0 .L0 
     /tmp/cc9NmN95.s:96     .text:00000000000000a4 .L0 
     /tmp/cc9NmN95.s:98     .text:00000000000000a8 .L0 
     /tmp/cc9NmN95.s:100    .text:00000000000000ac .L0 
     /tmp/cc9NmN95.s:106    .text:00000000000000ac _ZN13ConsoleBuffer3putEc
     /tmp/cc9NmN95.s:109    .text:00000000000000ac .L0 
     /tmp/cc9NmN95.s:111    .text:00000000000000ac .L0 
     /tmp/cc9NmN95.s:112    .text:00000000000000b0 .L0 
     /tmp/cc9NmN95.s:117    .text:00000000000000c0 .L0 
     /tmp/cc9NmN95.s:118    .text:00000000000000c0 .L0 
     /tmp/cc9NmN95.s:119    .text:00000000000000c0 .L0 
     /tmp/cc9NmN95.s:120    .text:00000000000000c0 .L0 
     /tmp/cc9NmN95.s:122    .text:00000000000000c4 .L0 
     /tmp/cc9NmN95.s:126    .text:00000000000000cc .L0 
     /tmp/cc9NmN95.s:127    .text:00000000000000cc .L0 
     /tmp/cc9NmN95.s:132    .text:00000000000000d8 .L0 
GAS LISTING /tmp/cc9NmN95.s 			page 10


     /tmp/cc9NmN95.s:133    .text:00000000000000d8 .L0 
     /tmp/cc9NmN95.s:137    .text:00000000000000e4 .L0 
     /tmp/cc9NmN95.s:139    .text:00000000000000e8 .L0 
     /tmp/cc9NmN95.s:141    .text:00000000000000ec .L0 
     /tmp/cc9NmN95.s:143    .text:00000000000000f0 .L0 
     /tmp/cc9NmN95.s:145    .text:00000000000000f4 .L0 
     /tmp/cc9NmN95.s:146    .text:00000000000000f4 .L0 
     /tmp/cc9NmN95.s:148    .text:00000000000000f8 .L0 
     /tmp/cc9NmN95.s:150    .text:00000000000000fc .L0 
     /tmp/cc9NmN95.s:152    .text:0000000000000100 .L0 
     /tmp/cc9NmN95.s:154    .text:0000000000000104 .L0 
     /tmp/cc9NmN95.s:156    .text:0000000000000108 .L0 
     /tmp/cc9NmN95.s:158    .text:000000000000010c .L0 
     /tmp/cc9NmN95.s:161    .text:0000000000000114 .L0 
     /tmp/cc9NmN95.s:162    .text:0000000000000114 .L0 
     /tmp/cc9NmN95.s:166    .text:0000000000000120 .L0 
     /tmp/cc9NmN95.s:167    .text:0000000000000120 .L0 
     /tmp/cc9NmN95.s:171    .text:000000000000012c .L0 
     /tmp/cc9NmN95.s:172    .text:0000000000000130 .L0 
     /tmp/cc9NmN95.s:174    .text:0000000000000134 .L0 
     /tmp/cc9NmN95.s:175    .text:0000000000000134 .L0 
     /tmp/cc9NmN95.s:177    .text:0000000000000138 .L0 
     /tmp/cc9NmN95.s:180    .text:000000000000013c .L0 
     /tmp/cc9NmN95.s:182    .text:0000000000000140 .L0 
     /tmp/cc9NmN95.s:184    .text:0000000000000144 .L0 
     /tmp/cc9NmN95.s:190    .text:0000000000000144 _ZN13ConsoleBuffer3getEv
     /tmp/cc9NmN95.s:193    .text:0000000000000144 .L0 
     /tmp/cc9NmN95.s:195    .text:0000000000000144 .L0 
     /tmp/cc9NmN95.s:196    .text:0000000000000148 .L0 
     /tmp/cc9NmN95.s:201    .text:0000000000000158 .L0 
     /tmp/cc9NmN95.s:202    .text:0000000000000158 .L0 
     /tmp/cc9NmN95.s:203    .text:0000000000000158 .L0 
     /tmp/cc9NmN95.s:204    .text:0000000000000158 .L0 
     /tmp/cc9NmN95.s:206    .text:000000000000015c .L0 
     /tmp/cc9NmN95.s:209    .text:0000000000000160 .L0 
     /tmp/cc9NmN95.s:210    .text:0000000000000160 .L0 
     /tmp/cc9NmN95.s:215    .text:000000000000016c .L0 
     /tmp/cc9NmN95.s:216    .text:000000000000016c .L0 
     /tmp/cc9NmN95.s:220    .text:0000000000000178 .L0 
     /tmp/cc9NmN95.s:221    .text:0000000000000178 .L0 
     /tmp/cc9NmN95.s:223    .text:000000000000017c .L0 
     /tmp/cc9NmN95.s:225    .text:0000000000000180 .L0 
     /tmp/cc9NmN95.s:227    .text:0000000000000184 .L0 
     /tmp/cc9NmN95.s:230    .text:000000000000018c .L0 
     /tmp/cc9NmN95.s:232    .text:0000000000000190 .L0 
     /tmp/cc9NmN95.s:233    .text:0000000000000190 .L0 
     /tmp/cc9NmN95.s:235    .text:0000000000000194 .L0 
     /tmp/cc9NmN95.s:237    .text:0000000000000198 .L0 
     /tmp/cc9NmN95.s:240    .text:000000000000019c .L0 
     /tmp/cc9NmN95.s:242    .text:00000000000001a0 .L0 
     /tmp/cc9NmN95.s:245    .text:00000000000001a8 .L0 
     /tmp/cc9NmN95.s:246    .text:00000000000001a8 .L0 
     /tmp/cc9NmN95.s:250    .text:00000000000001b4 .L0 
     /tmp/cc9NmN95.s:251    .text:00000000000001b4 .L0 
     /tmp/cc9NmN95.s:255    .text:00000000000001c0 .L0 
     /tmp/cc9NmN95.s:256    .text:00000000000001c0 .L0 
     /tmp/cc9NmN95.s:258    .text:00000000000001c8 .L0 
GAS LISTING /tmp/cc9NmN95.s 			page 11


     /tmp/cc9NmN95.s:260    .text:00000000000001cc .L0 
     /tmp/cc9NmN95.s:261    .text:00000000000001cc .L0 
     /tmp/cc9NmN95.s:263    .text:00000000000001d0 .L0 
     /tmp/cc9NmN95.s:266    .text:00000000000001d4 .L0 
     /tmp/cc9NmN95.s:269    .text:00000000000001d8 .L0 
     /tmp/cc9NmN95.s:271    .text:00000000000001dc .L0 
     /tmp/cc9NmN95.s:277    .text:00000000000001dc _ZN13ConsoleBuffer4freeEPS_
     /tmp/cc9NmN95.s:280    .text:00000000000001dc .L0 
     /tmp/cc9NmN95.s:282    .text:00000000000001dc .L0 
     /tmp/cc9NmN95.s:283    .text:00000000000001e0 .L0 
     /tmp/cc9NmN95.s:287    .text:00000000000001ec .L0 
     /tmp/cc9NmN95.s:288    .text:00000000000001ec .L0 
     /tmp/cc9NmN95.s:289    .text:00000000000001ec .L0 
     /tmp/cc9NmN95.s:291    .text:00000000000001f0 .L0 
     /tmp/cc9NmN95.s:294    .text:00000000000001f4 .L0 
     /tmp/cc9NmN95.s:295    .text:00000000000001f4 .L0 
     /tmp/cc9NmN95.s:300    .text:0000000000000200 .L0 
     /tmp/cc9NmN95.s:301    .text:0000000000000200 .L0 
     /tmp/cc9NmN95.s:305    .text:000000000000020c .L0 
     /tmp/cc9NmN95.s:306    .text:000000000000020c .L0 
     /tmp/cc9NmN95.s:310    .text:0000000000000218 .L0 
     /tmp/cc9NmN95.s:311    .text:0000000000000218 .L0 
     /tmp/cc9NmN95.s:315    .text:0000000000000224 .L0 
     /tmp/cc9NmN95.s:316    .text:0000000000000224 .L0 
     /tmp/cc9NmN95.s:320    .text:0000000000000230 .L0 
     /tmp/cc9NmN95.s:321    .text:0000000000000230 .L0 
     /tmp/cc9NmN95.s:325    .text:000000000000023c .L0 
     /tmp/cc9NmN95.s:326    .text:0000000000000240 .L0 
     /tmp/cc9NmN95.s:328    .text:0000000000000244 .L0 
     /tmp/cc9NmN95.s:329    .text:0000000000000244 .L0 
     /tmp/cc9NmN95.s:331    .text:0000000000000248 .L0 
     /tmp/cc9NmN95.s:334    .text:000000000000024c .L0 
     /tmp/cc9NmN95.s:336    .text:0000000000000250 .L0 
     /tmp/cc9NmN95.s:347    .text:0000000000000250 .L0 
     /tmp/cc9NmN95.s:1649   .debug_abbrev:0000000000000000 .Ldebug_abbrev0
     /tmp/cc9NmN95.s:2870   .debug_str:0000000000000731 .LASF139
     /tmp/cc9NmN95.s:2882   .debug_str:0000000000000842 .LASF140
     /tmp/cc9NmN95.s:2734   .debug_str:0000000000000322 .LASF141
     /tmp/cc9NmN95.s:5      .text:0000000000000000 .Ltext0
     /tmp/cc9NmN95.s:339    .text:0000000000000250 .Letext0
     /tmp/cc9NmN95.s:2634   .debug_line:0000000000000000 .Ldebug_line0
     /tmp/cc9NmN95.s:2786   .debug_str:00000000000004e5 .LASF5
     /tmp/cc9NmN95.s:2676   .debug_str:0000000000000150 .LASF6
     /tmp/cc9NmN95.s:2664   .debug_str:00000000000000fe .LASF0
     /tmp/cc9NmN95.s:2822   .debug_str:00000000000005ea .LASF1
     /tmp/cc9NmN95.s:2926   .debug_str:00000000000009ba .LASF33
     /tmp/cc9NmN95.s:2920   .debug_str:0000000000000985 .LASF35
     /tmp/cc9NmN95.s:2898   .debug_str:00000000000008bd .LASF76
     /tmp/cc9NmN95.s:2842   .debug_str:000000000000067e .LASF74
     /tmp/cc9NmN95.s:2686   .debug_str:0000000000000184 .LASF2
     /tmp/cc9NmN95.s:2880   .debug_str:0000000000000831 .LASF9
     /tmp/cc9NmN95.s:2888   .debug_str:000000000000086c .LASF27
     /tmp/cc9NmN95.s:2742   .debug_str:0000000000000388 .LASF29
     /tmp/cc9NmN95.s:2844   .debug_str:000000000000068d .LASF3
     /tmp/cc9NmN95.s:2794   .debug_str:000000000000051b .LASF4
     /tmp/cc9NmN95.s:2858   .debug_str:00000000000006ef .LASF7
     /tmp/cc9NmN95.s:2860   .debug_str:00000000000006f7 .LASF8
GAS LISTING /tmp/cc9NmN95.s 			page 12


     /tmp/cc9NmN95.s:2792   .debug_str:0000000000000504 .LASF10
     /tmp/cc9NmN95.s:2656   .debug_str:00000000000000c4 .LASF11
     /tmp/cc9NmN95.s:2890   .debug_str:0000000000000871 .LASF13
     /tmp/cc9NmN95.s:2884   .debug_str:0000000000000858 .LASF12
     /tmp/cc9NmN95.s:2798   .debug_str:0000000000000534 .LASF14
     /tmp/cc9NmN95.s:2788   .debug_str:00000000000004ea .LASF15
     /tmp/cc9NmN95.s:2678   .debug_str:0000000000000155 .LASF16
     /tmp/cc9NmN95.s:2838   .debug_str:0000000000000652 .LASF17
     /tmp/cc9NmN95.s:2892   .debug_str:0000000000000888 .LASF18
     /tmp/cc9NmN95.s:2766   .debug_str:000000000000042e .LASF19
     /tmp/cc9NmN95.s:2760   .debug_str:0000000000000401 .LASF20
     /tmp/cc9NmN95.s:2650   .debug_str:0000000000000086 .LASF21
     /tmp/cc9NmN95.s:2782   .debug_str:00000000000004a7 .LASF22
     /tmp/cc9NmN95.s:2762   .debug_str:0000000000000415 .LASF23
     /tmp/cc9NmN95.s:2894   .debug_str:000000000000089c .LASF24
     /tmp/cc9NmN95.s:2850   .debug_str:00000000000006c6 .LASF25
     /tmp/cc9NmN95.s:2722   .debug_str:00000000000002bf .LASF26
     /tmp/cc9NmN95.s:2800   .debug_str:000000000000054b .LASF142
     /tmp/cc9NmN95.s:2918   .debug_str:000000000000097a .LASF28
     /tmp/cc9NmN95.s:2868   .debug_str:0000000000000719 .LASF30
     /tmp/cc9NmN95.s:2712   .debug_str:000000000000026e .LASF143
     /tmp/cc9NmN95.s:2758   .debug_str:00000000000003fb .LASF31
     /tmp/cc9NmN95.s:2736   .debug_str:0000000000000347 .LASF32
     /tmp/cc9NmN95.s:2708   .debug_str:000000000000025d .LASF126
     /tmp/cc9NmN95.s:2654   .debug_str:00000000000000ad .LASF127
     /tmp/cc9NmN95.s:2818   .debug_str:00000000000005d9 .LASF34
     /tmp/cc9NmN95.s:2694   .debug_str:00000000000001ba .LASF36
     /tmp/cc9NmN95.s:2864   .debug_str:0000000000000707 .LASF37
     /tmp/cc9NmN95.s:2670   .debug_str:0000000000000126 .LASF38
     /tmp/cc9NmN95.s:2928   .debug_str:00000000000009c1 .LASF54
     /tmp/cc9NmN95.s:2684   .debug_str:000000000000017b .LASF41
     /tmp/cc9NmN95.s:2666   .debug_str:0000000000000103 .LASF43
     /tmp/cc9NmN95.s:2832   .debug_str:0000000000000630 .LASF39
     /tmp/cc9NmN95.s:2640   .debug_str:000000000000001c .LASF40
     /tmp/cc9NmN95.s:2896   .debug_str:00000000000008b5 .LASF42
     /tmp/cc9NmN95.s:2648   .debug_str:0000000000000074 .LASF44
     /tmp/cc9NmN95.s:2682   .debug_str:0000000000000176 .LASF45
     /tmp/cc9NmN95.s:2916   .debug_str:0000000000000975 .LASF46
     /tmp/cc9NmN95.s:2770   .debug_str:000000000000043d .LASF47
     /tmp/cc9NmN95.s:2886   .debug_str:0000000000000864 .LASF48
     /tmp/cc9NmN95.s:2836   .debug_str:0000000000000649 .LASF49
     /tmp/cc9NmN95.s:2732   .debug_str:000000000000031b .LASF50
     /tmp/cc9NmN95.s:2878   .debug_str:0000000000000827 .LASF51
     /tmp/cc9NmN95.s:2856   .debug_str:00000000000006e6 .LASF52
     /tmp/cc9NmN95.s:2820   .debug_str:00000000000005df .LASF53
     /tmp/cc9NmN95.s:2906   .debug_str:0000000000000921 .LASF55
     /tmp/cc9NmN95.s:2830   .debug_str:000000000000061f .LASF56
     /tmp/cc9NmN95.s:2672   .debug_str:0000000000000138 .LASF144
     /tmp/cc9NmN95.s:2644   .debug_str:0000000000000045 .LASF145
     /tmp/cc9NmN95.s:2768   .debug_str:0000000000000438 .LASF71
     /tmp/cc9NmN95.s:2824   .debug_str:00000000000005f1 .LASF57
     /tmp/cc9NmN95.s:2802   .debug_str:0000000000000550 .LASF58
     /tmp/cc9NmN95.s:2876   .debug_str:0000000000000822 .LASF59
     /tmp/cc9NmN95.s:2790   .debug_str:00000000000004f5 .LASF60
     /tmp/cc9NmN95.s:2854   .debug_str:00000000000006df .LASF61
     /tmp/cc9NmN95.s:2846   .debug_str:0000000000000692 .LASF62
     /tmp/cc9NmN95.s:2690   .debug_str:000000000000019b .LASF63
GAS LISTING /tmp/cc9NmN95.s 			page 13


     /tmp/cc9NmN95.s:2796   .debug_str:0000000000000520 .LASF64
     /tmp/cc9NmN95.s:2912   .debug_str:000000000000094d .LASF65
     /tmp/cc9NmN95.s:2874   .debug_str:0000000000000807 .LASF66
     /tmp/cc9NmN95.s:2726   .debug_str:0000000000000303 .LASF67
     /tmp/cc9NmN95.s:2702   .debug_str:000000000000022a .LASF68
     /tmp/cc9NmN95.s:2642   .debug_str:000000000000003d .LASF69
     /tmp/cc9NmN95.s:2872   .debug_str:00000000000007f5 .LASF70
     /tmp/cc9NmN95.s:2908   .debug_str:0000000000000929 .LASF130
     /tmp/cc9NmN95.s:2728   .debug_str:0000000000000309 .LASF72
     /tmp/cc9NmN95.s:2834   .debug_str:000000000000063b .LASF73
     /tmp/cc9NmN95.s:2816   .debug_str:00000000000005c0 .LASF75
     /tmp/cc9NmN95.s:2776   .debug_str:0000000000000450 .LASF77
     /tmp/cc9NmN95.s:2730   .debug_str:0000000000000316 .LASF78
     /tmp/cc9NmN95.s:2914   .debug_str:000000000000095b .LASF79
     /tmp/cc9NmN95.s:2774   .debug_str:000000000000044b .LASF80
     /tmp/cc9NmN95.s:2922   .debug_str:0000000000000997 .LASF81
     /tmp/cc9NmN95.s:2658   .debug_str:00000000000000d0 .LASF82
     /tmp/cc9NmN95.s:2696   .debug_str:00000000000001ca .LASF83
     /tmp/cc9NmN95.s:2716   .debug_str:0000000000000286 .LASF84
     /tmp/cc9NmN95.s:2724   .debug_str:00000000000002e2 .LASF85
     /tmp/cc9NmN95.s:2900   .debug_str:00000000000008d0 .LASF86
     /tmp/cc9NmN95.s:2848   .debug_str:00000000000006a3 .LASF87
     /tmp/cc9NmN95.s:2738   .debug_str:000000000000035a .LASF88
     /tmp/cc9NmN95.s:2826   .debug_str:0000000000000601 .LASF89
     /tmp/cc9NmN95.s:2772   .debug_str:0000000000000443 .LASF90
     /tmp/cc9NmN95.s:2924   .debug_str:00000000000009b1 .LASF91
     /tmp/cc9NmN95.s:2756   .debug_str:00000000000003f1 .LASF92
     /tmp/cc9NmN95.s:2674   .debug_str:0000000000000146 .LASF93
     /tmp/cc9NmN95.s:2700   .debug_str:000000000000021b .LASF94
     /tmp/cc9NmN95.s:2806   .debug_str:000000000000057b .LASF95
     /tmp/cc9NmN95.s:2862   .debug_str:0000000000000702 .LASF96
     /tmp/cc9NmN95.s:2754   .debug_str:00000000000003de .LASF97
     /tmp/cc9NmN95.s:2638   .debug_str:000000000000000e .LASF98
     /tmp/cc9NmN95.s:2748   .debug_str:00000000000003ca .LASF99
     /tmp/cc9NmN95.s:2828   .debug_str:0000000000000618 .LASF100
     /tmp/cc9NmN95.s:2740   .debug_str:0000000000000376 .LASF101
     /tmp/cc9NmN95.s:2646   .debug_str:000000000000006d .LASF102
     /tmp/cc9NmN95.s:2814   .debug_str:00000000000005b9 .LASF103
     /tmp/cc9NmN95.s:2808   .debug_str:000000000000058a .LASF104
     /tmp/cc9NmN95.s:2746   .debug_str:00000000000003b7 .LASF105
     /tmp/cc9NmN95.s:2714   .debug_str:0000000000000276 .LASF106
     /tmp/cc9NmN95.s:2720   .debug_str:00000000000002b1 .LASF107
     /tmp/cc9NmN95.s:2662   .debug_str:00000000000000ef .LASF108
     /tmp/cc9NmN95.s:2706   .debug_str:000000000000024e .LASF109
     /tmp/cc9NmN95.s:2668   .debug_str:0000000000000116 .LASF110
     /tmp/cc9NmN95.s:2660   .debug_str:00000000000000df .LASF111
     /tmp/cc9NmN95.s:2852   .debug_str:00000000000006d3 .LASF112
     /tmp/cc9NmN95.s:2692   .debug_str:00000000000001a4 .LASF113
     /tmp/cc9NmN95.s:2778   .debug_str:0000000000000469 .LASF114
     /tmp/cc9NmN95.s:2804   .debug_str:000000000000056b .LASF115
     /tmp/cc9NmN95.s:2902   .debug_str:00000000000008dd .LASF116
     /tmp/cc9NmN95.s:2752   .debug_str:00000000000003d9 .LASF117
     /tmp/cc9NmN95.s:2652   .debug_str:0000000000000094 .LASF118
     /tmp/cc9NmN95.s:2750   .debug_str:00000000000003d0 .LASF119
     /tmp/cc9NmN95.s:2718   .debug_str:0000000000000291 .LASF120
     /tmp/cc9NmN95.s:2744   .debug_str:000000000000039a .LASF121
     /tmp/cc9NmN95.s:2866   .debug_str:000000000000070c .LASF122
GAS LISTING /tmp/cc9NmN95.s 			page 14


     /tmp/cc9NmN95.s:2784   .debug_str:00000000000004c0 .LASF123
     /tmp/cc9NmN95.s:2704   .debug_str:000000000000023a .LASF124
     /tmp/cc9NmN95.s:2698   .debug_str:00000000000001ef .LASF125
     /tmp/cc9NmN95.s:2840   .debug_str:000000000000065b .LASF128
     /tmp/cc9NmN95.s:2764   .debug_str:0000000000000422 .LASF146
     /tmp/cc9NmN95.s:2636   .debug_str:0000000000000000 .LASF129
     /tmp/cc9NmN95.s:2780   .debug_str:000000000000047f .LASF131
     /tmp/cc9NmN95.s:2812   .debug_str:00000000000005a6 .LASF132
     /tmp/cc9NmN95.s:2904   .debug_str:00000000000008e6 .LASF133
     /tmp/cc9NmN95.s:2910   .debug_str:000000000000093f .LASF134
     /tmp/cc9NmN95.s:2810   .debug_str:000000000000059d .LASF135
     /tmp/cc9NmN95.s:2680   .debug_str:000000000000016c .LASF136
     /tmp/cc9NmN95.s:2688   .debug_str:000000000000018a .LASF137
     /tmp/cc9NmN95.s:278    .text:00000000000001dc .LFB18
     /tmp/cc9NmN95.s:337    .text:0000000000000250 .LFE18
     /tmp/cc9NmN95.s:2517   .debug_loc:0000000000000000 .LLST6
     /tmp/cc9NmN95.s:298    .text:0000000000000200 .LVL28
     /tmp/cc9NmN95.s:303    .text:000000000000020c .LVL29
     /tmp/cc9NmN95.s:308    .text:0000000000000218 .LVL30
     /tmp/cc9NmN95.s:313    .text:0000000000000224 .LVL31
     /tmp/cc9NmN95.s:318    .text:0000000000000230 .LVL32
     /tmp/cc9NmN95.s:323    .text:000000000000023c .LVL33
     /tmp/cc9NmN95.s:191    .text:0000000000000144 .LFB17
     /tmp/cc9NmN95.s:272    .text:00000000000001dc .LFE17
     /tmp/cc9NmN95.s:2710   .debug_str:0000000000000269 .LASF138
     /tmp/cc9NmN95.s:2535   .debug_loc:000000000000004c .LLST4
     /tmp/cc9NmN95.s:2553   .debug_loc:0000000000000098 .LLST5
     /tmp/cc9NmN95.s:213    .text:000000000000016c .LVL19
     /tmp/cc9NmN95.s:218    .text:0000000000000178 .LVL20
     /tmp/cc9NmN95.s:248    .text:00000000000001b4 .LVL22
     /tmp/cc9NmN95.s:253    .text:00000000000001c0 .LVL23
     /tmp/cc9NmN95.s:107    .text:00000000000000ac .LFB16
     /tmp/cc9NmN95.s:185    .text:0000000000000144 .LFE16
     /tmp/cc9NmN95.s:2564   .debug_loc:00000000000000ce .LLST2
     /tmp/cc9NmN95.s:2582   .debug_loc:000000000000011a .LLST3
     /tmp/cc9NmN95.s:130    .text:00000000000000d8 .LVL12
     /tmp/cc9NmN95.s:135    .text:00000000000000e4 .LVL13
     /tmp/cc9NmN95.s:164    .text:0000000000000120 .LVL14
     /tmp/cc9NmN95.s:169    .text:000000000000012c .LVL15
     /tmp/cc9NmN95.s:10     .text:0000000000000000 .LFB15
     /tmp/cc9NmN95.s:101    .text:00000000000000ac .LFE15
     /tmp/cc9NmN95.s:2596   .debug_loc:0000000000000153 .LLST0
     /tmp/cc9NmN95.s:2610   .debug_loc:000000000000018c .LLST1
     /tmp/cc9NmN95.s:33     .text:0000000000000028 .LVL2
     /tmp/cc9NmN95.s:53     .text:000000000000004c .LVL4
     /tmp/cc9NmN95.s:60     .text:000000000000005c .LVL5
     /tmp/cc9NmN95.s:67     .text:000000000000006c .LVL6
     /tmp/cc9NmN95.s:74     .text:000000000000007c .LVL7
     /tmp/cc9NmN95.s:81     .text:000000000000008c .LVL8
     /tmp/cc9NmN95.s:281    .text:00000000000001dc .LVL26
     /tmp/cc9NmN95.s:296    .text:00000000000001f8 .LVL27
     /tmp/cc9NmN95.s:332    .text:0000000000000248 .LVL34
     /tmp/cc9NmN95.s:194    .text:0000000000000144 .LVL17
     /tmp/cc9NmN95.s:211    .text:0000000000000164 .LVL18
     /tmp/cc9NmN95.s:264    .text:00000000000001d0 .LVL24
     /tmp/cc9NmN95.s:238    .text:000000000000019c .LVL21
     /tmp/cc9NmN95.s:267    .text:00000000000001d4 .LVL25
GAS LISTING /tmp/cc9NmN95.s 			page 15


     /tmp/cc9NmN95.s:110    .text:00000000000000ac .LVL10
     /tmp/cc9NmN95.s:128    .text:00000000000000d0 .LVL11
     /tmp/cc9NmN95.s:178    .text:0000000000000138 .LVL16
     /tmp/cc9NmN95.s:14     .text:0000000000000000 .LVL0
     /tmp/cc9NmN95.s:31     .text:0000000000000020 .LVL1
     /tmp/cc9NmN95.s:35     .text:000000000000002c .LVL3
     /tmp/cc9NmN95.s:94     .text:00000000000000a0 .LVL9
     /tmp/cc9NmN95.s:348    .debug_info:0000000000000000 .Ldebug_info0

UNDEFINED SYMBOLS
_ZN15MemoryAllocator8allocateEm
_ZN3Sem15createSemaphoreEj
_ZN3Sem4waitEv
_ZN3Sem6signalEv
_ZN15MemoryAllocator4freeEPv
_ZN3Sem13freeSemaphoreEPS_
