GAS LISTING /tmp/cculVh6W.s 			page 1


   1              		.file	"List.cpp"
   2              		.option pic
   3              		.option norelax
   4              		.text
   5              	.Ltext0:
   6              		.align	2
   7              		.globl	_ZN4List6createEv
   9              	_ZN4List6createEv:
  10              	.LFB10:
  11              		.file 1 "src/List.cpp"
   1:src/List.cpp  **** #include "../h/List.hpp"
   2:src/List.cpp  **** #include "../h/MemoryAllocator.hpp"
   3:src/List.cpp  **** #include "../h/TCB.hpp"
   4:src/List.cpp  **** 
   5:src/List.cpp  **** List *List::create() {
  12              		.loc 1 5 22
  13              		.cfi_startproc
  14 0000 130101FF 		addi	sp,sp,-16
  15              		.cfi_def_cfa_offset 16
  16 0004 23341100 		sd	ra,8(sp)
  17 0008 23308100 		sd	s0,0(sp)
  18              		.cfi_offset 1, -8
  19              		.cfi_offset 8, -16
  20 000c 13040101 		addi	s0,sp,16
  21              		.cfi_def_cfa 8, 0
   6:src/List.cpp  ****     List* l = (List*)MemoryAllocator::allocate(sizeof(List));
  22              		.loc 1 6 5
  23              		.loc 1 6 47 is_stmt 0
  24 0010 13050001 		li	a0,16
  25 0014 97000000 		call	_ZN15MemoryAllocator8allocateEm@plt
  25      E7800000 
  26              	.LVL0:
   7:src/List.cpp  ****     l->head = nullptr;
  27              		.loc 1 7 5 is_stmt 1
  28              		.loc 1 7 13 is_stmt 0
  29 001c 23300500 		sd	zero,0(a0)
   8:src/List.cpp  ****     l->tail = nullptr;
  30              		.loc 1 8 5 is_stmt 1
  31              		.loc 1 8 13 is_stmt 0
  32 0020 23340500 		sd	zero,8(a0)
   9:src/List.cpp  ****     return l;
  33              		.loc 1 9 5 is_stmt 1
  10:src/List.cpp  **** }
  34              		.loc 1 10 1 is_stmt 0
  35 0024 83308100 		ld	ra,8(sp)
  36              		.cfi_restore 1
  37 0028 03340100 		ld	s0,0(sp)
  38              		.cfi_restore 8
  39              		.cfi_def_cfa 2, 16
  40 002c 13010101 		addi	sp,sp,16
  41              		.cfi_def_cfa_offset 0
  42 0030 67800000 		jr	ra
  43              		.cfi_endproc
  44              	.LFE10:
  46              		.align	2
  47              		.globl	_ZN4List3getEv
  49              	_ZN4List3getEv:
GAS LISTING /tmp/cculVh6W.s 			page 2


  50              	.LFB11:
  11:src/List.cpp  **** 
  12:src/List.cpp  **** TCB *List::get() {
  51              		.loc 1 12 18 is_stmt 1
  52              		.cfi_startproc
  53              	.LVL1:
  54 0034 130101FE 		addi	sp,sp,-32
  55              		.cfi_def_cfa_offset 32
  56 0038 233C1100 		sd	ra,24(sp)
  57 003c 23388100 		sd	s0,16(sp)
  58 0040 23349100 		sd	s1,8(sp)
  59              		.cfi_offset 1, -8
  60              		.cfi_offset 8, -16
  61              		.cfi_offset 9, -24
  62 0044 13040102 		addi	s0,sp,32
  63              		.cfi_def_cfa 8, 0
  64 0048 93070500 		mv	a5,a0
  13:src/List.cpp  ****     if(!head)
  65              		.loc 1 13 5
  66              		.loc 1 13 9 is_stmt 0
  67 004c 03350500 		ld	a0,0(a0)
  68              	.LVL2:
  69              		.loc 1 13 5
  70 0050 63020504 		beqz	a0,.L7
  14:src/List.cpp  ****         return nullptr;
  15:src/List.cpp  ****     TCB* ret = head->thread;
  71              		.loc 1 15 5 is_stmt 1
  72              		.loc 1 15 10 is_stmt 0
  73 0054 83348500 		ld	s1,8(a0)
  74              	.LVL3:
  16:src/List.cpp  ****     Node* p = head;
  75              		.loc 1 16 5 is_stmt 1
  17:src/List.cpp  ****     if(head == tail){
  76              		.loc 1 17 5
  77              		.loc 1 17 16 is_stmt 0
  78 0058 03B78700 		ld	a4,8(a5)
  79              		.loc 1 17 5
  80 005c 6306E502 		beq	a0,a4,.L9
  18:src/List.cpp  ****         head = nullptr;
  19:src/List.cpp  ****         tail = nullptr;
  20:src/List.cpp  ****     }
  21:src/List.cpp  ****     else
  22:src/List.cpp  ****         head = head->next;
  81              		.loc 1 22 9 is_stmt 1
  82              		.loc 1 22 22 is_stmt 0
  83 0060 03370500 		ld	a4,0(a0)
  84              		.loc 1 22 14
  85 0064 23B0E700 		sd	a4,0(a5)
  86              	.L6:
  23:src/List.cpp  ****     MemoryAllocator::free(p);
  87              		.loc 1 23 5 is_stmt 1
  88              		.loc 1 23 26 is_stmt 0
  89 0068 97000000 		call	_ZN15MemoryAllocator4freeEPv@plt
  89      E7800000 
  90              	.LVL4:
  24:src/List.cpp  ****     p = nullptr;
  91              		.loc 1 24 5 is_stmt 1
GAS LISTING /tmp/cculVh6W.s 			page 3


  25:src/List.cpp  ****     return ret;
  92              		.loc 1 25 5
  93              	.L3:
  26:src/List.cpp  **** }
  94              		.loc 1 26 1 is_stmt 0
  95 0070 13850400 		mv	a0,s1
  96 0074 83308101 		ld	ra,24(sp)
  97              		.cfi_remember_state
  98              		.cfi_restore 1
  99 0078 03340101 		ld	s0,16(sp)
 100              		.cfi_restore 8
 101              		.cfi_def_cfa 2, 32
 102 007c 83348100 		ld	s1,8(sp)
 103              		.cfi_restore 9
 104 0080 13010102 		addi	sp,sp,32
 105              		.cfi_def_cfa_offset 0
 106 0084 67800000 		jr	ra
 107              	.LVL5:
 108              	.L9:
 109              		.cfi_restore_state
  18:src/List.cpp  ****         tail = nullptr;
 110              		.loc 1 18 9 is_stmt 1
  18:src/List.cpp  ****         tail = nullptr;
 111              		.loc 1 18 14 is_stmt 0
 112 0088 23B00700 		sd	zero,0(a5)
  19:src/List.cpp  ****     }
 113              		.loc 1 19 9 is_stmt 1
  19:src/List.cpp  ****     }
 114              		.loc 1 19 14 is_stmt 0
 115 008c 23B40700 		sd	zero,8(a5)
 116 0090 6FF09FFD 		j	.L6
 117              	.LVL6:
 118              	.L7:
  14:src/List.cpp  ****     TCB* ret = head->thread;
 119              		.loc 1 14 16
 120 0094 93040500 		mv	s1,a0
 121 0098 6FF09FFD 		j	.L3
 122              		.cfi_endproc
 123              	.LFE11:
 125              		.align	2
 126              		.globl	_ZN4List3putEP3TCB
 128              	_ZN4List3putEP3TCB:
 129              	.LFB12:
  27:src/List.cpp  **** 
  28:src/List.cpp  **** void List::put(TCB *thread) {
 130              		.loc 1 28 29 is_stmt 1
 131              		.cfi_startproc
 132              	.LVL7:
  29:src/List.cpp  ****     if(!thread)
 133              		.loc 1 29 5
 134 009c 63880506 		beqz	a1,.L14
  28:src/List.cpp  ****     if(!thread)
 135              		.loc 1 28 29 is_stmt 0
 136 00a0 130101FE 		addi	sp,sp,-32
 137              		.cfi_def_cfa_offset 32
 138 00a4 233C1100 		sd	ra,24(sp)
 139 00a8 23388100 		sd	s0,16(sp)
GAS LISTING /tmp/cculVh6W.s 			page 4


 140 00ac 23349100 		sd	s1,8(sp)
 141 00b0 23302101 		sd	s2,0(sp)
 142              		.cfi_offset 1, -8
 143              		.cfi_offset 8, -16
 144              		.cfi_offset 9, -24
 145              		.cfi_offset 18, -32
 146 00b4 13040102 		addi	s0,sp,32
 147              		.cfi_def_cfa 8, 0
 148 00b8 93040500 		mv	s1,a0
 149 00bc 13890500 		mv	s2,a1
  30:src/List.cpp  ****         return;
  31:src/List.cpp  ****     Node* newNode = (Node*)MemoryAllocator::allocate(sizeof(Node));
 150              		.loc 1 31 5 is_stmt 1
 151              		.loc 1 31 53 is_stmt 0
 152 00c0 13050001 		li	a0,16
 153              	.LVL8:
 154 00c4 97000000 		call	_ZN15MemoryAllocator8allocateEm@plt
 154      E7800000 
 155              	.LVL9:
  32:src/List.cpp  ****     newNode->next = nullptr;
 156              		.loc 1 32 5 is_stmt 1
 157              		.loc 1 32 19 is_stmt 0
 158 00cc 23300500 		sd	zero,0(a0)
  33:src/List.cpp  ****     newNode->thread = thread;
 159              		.loc 1 33 5 is_stmt 1
 160              		.loc 1 33 21 is_stmt 0
 161 00d0 23342501 		sd	s2,8(a0)
  34:src/List.cpp  ****     if(!head){
 162              		.loc 1 34 5 is_stmt 1
 163              		.loc 1 34 9 is_stmt 0
 164 00d4 83B70400 		ld	a5,0(s1)
 165              		.loc 1 34 5
 166 00d8 63840702 		beqz	a5,.L17
  35:src/List.cpp  ****         head = newNode;
  36:src/List.cpp  ****         tail = newNode;
  37:src/List.cpp  ****         return;
  38:src/List.cpp  ****     }
  39:src/List.cpp  ****     tail->next = newNode;
 167              		.loc 1 39 5 is_stmt 1
 168 00dc 83B78400 		ld	a5,8(s1)
 169              		.loc 1 39 16 is_stmt 0
 170 00e0 23B0A700 		sd	a0,0(a5)
  40:src/List.cpp  ****     tail = newNode;
 171              		.loc 1 40 5 is_stmt 1
 172              		.loc 1 40 10 is_stmt 0
 173 00e4 23B4A400 		sd	a0,8(s1)
 174              	.L10:
  41:src/List.cpp  **** }
 175              		.loc 1 41 1
 176 00e8 83308101 		ld	ra,24(sp)
 177              		.cfi_remember_state
 178              		.cfi_restore 1
 179 00ec 03340101 		ld	s0,16(sp)
 180              		.cfi_restore 8
 181              		.cfi_def_cfa 2, 32
 182 00f0 83348100 		ld	s1,8(sp)
 183              		.cfi_restore 9
GAS LISTING /tmp/cculVh6W.s 			page 5


 184              	.LVL10:
 185 00f4 03390100 		ld	s2,0(sp)
 186              		.cfi_restore 18
 187              	.LVL11:
 188 00f8 13010102 		addi	sp,sp,32
 189              		.cfi_def_cfa_offset 0
 190 00fc 67800000 		jr	ra
 191              	.LVL12:
 192              	.L17:
 193              		.cfi_restore_state
  35:src/List.cpp  ****         head = newNode;
 194              		.loc 1 35 9 is_stmt 1
  35:src/List.cpp  ****         head = newNode;
 195              		.loc 1 35 14 is_stmt 0
 196 0100 23B0A400 		sd	a0,0(s1)
  36:src/List.cpp  ****         return;
 197              		.loc 1 36 9 is_stmt 1
  36:src/List.cpp  ****         return;
 198              		.loc 1 36 14 is_stmt 0
 199 0104 23B4A400 		sd	a0,8(s1)
  37:src/List.cpp  ****     }
 200              		.loc 1 37 9 is_stmt 1
 201 0108 6FF01FFE 		j	.L10
 202              	.LVL13:
 203              	.L14:
 204              		.cfi_def_cfa_register 2
 205              		.cfi_restore 1
 206              		.cfi_restore 8
 207              		.cfi_restore 9
 208              		.cfi_restore 18
 209 010c 67800000 		ret
 210              		.cfi_endproc
 211              	.LFE12:
 213              		.align	2
 214              		.globl	_ZN4List4freeEPS_
 216              	_ZN4List4freeEPS_:
 217              	.LFB13:
  42:src/List.cpp  **** 
  43:src/List.cpp  **** void List::free(List* list) {
 218              		.loc 1 43 29
 219              		.cfi_startproc
 220              	.LVL14:
 221 0110 130101FD 		addi	sp,sp,-48
 222              		.cfi_def_cfa_offset 48
 223 0114 23341102 		sd	ra,40(sp)
 224 0118 23308102 		sd	s0,32(sp)
 225 011c 233C9100 		sd	s1,24(sp)
 226 0120 23382101 		sd	s2,16(sp)
 227 0124 23343101 		sd	s3,8(sp)
 228              		.cfi_offset 1, -8
 229              		.cfi_offset 8, -16
 230              		.cfi_offset 9, -24
 231              		.cfi_offset 18, -32
 232              		.cfi_offset 19, -40
 233 0128 13040103 		addi	s0,sp,48
 234              		.cfi_def_cfa 8, 0
 235 012c 93090500 		mv	s3,a0
GAS LISTING /tmp/cculVh6W.s 			page 6


  44:src/List.cpp  ****     Node* p = list->head, *q = nullptr;
 236              		.loc 1 44 5
 237              		.loc 1 44 11 is_stmt 0
 238 0130 83340500 		ld	s1,0(a0)
 239              	.LVL15:
 240              	.L20:
  45:src/List.cpp  ****     while (p){
 241              		.loc 1 45 5 is_stmt 1
 242              		.loc 1 45 12
 243 0134 63840402 		beqz	s1,.L19
  46:src/List.cpp  ****         q = p;
 244              		.loc 1 46 9
 245              	.LVL16:
  47:src/List.cpp  ****         p = p->next;
 246              		.loc 1 47 9
 247              		.loc 1 47 11 is_stmt 0
 248 0138 03B90400 		ld	s2,0(s1)
 249              	.LVL17:
  48:src/List.cpp  ****         TCB::freeThread(q->thread);
 250              		.loc 1 48 9 is_stmt 1
 251              		.loc 1 48 24 is_stmt 0
 252 013c 03B58400 		ld	a0,8(s1)
 253 0140 97000000 		call	_ZN3TCB10freeThreadEPS_@plt
 253      E7800000 
 254              	.LVL18:
  49:src/List.cpp  ****         MemoryAllocator::free(q);
 255              		.loc 1 49 9 is_stmt 1
 256              		.loc 1 49 30 is_stmt 0
 257 0148 13850400 		mv	a0,s1
 258 014c 97000000 		call	_ZN15MemoryAllocator4freeEPv@plt
 258      E7800000 
 259              	.LVL19:
  47:src/List.cpp  ****         p = p->next;
 260              		.loc 1 47 11
 261 0154 93040900 		mv	s1,s2
 262              	.LVL20:
  45:src/List.cpp  ****         q = p;
 263              		.loc 1 45 5
 264 0158 6FF0DFFD 		j	.L20
 265              	.LVL21:
 266              	.L19:
  50:src/List.cpp  ****     }
  51:src/List.cpp  ****     MemoryAllocator::free(list);
 267              		.loc 1 51 5 is_stmt 1
 268              		.loc 1 51 26 is_stmt 0
 269 015c 13850900 		mv	a0,s3
 270 0160 97000000 		call	_ZN15MemoryAllocator4freeEPv@plt
 270      E7800000 
 271              	.LVL22:
  52:src/List.cpp  **** }
 272              		.loc 1 52 1
 273 0168 83308102 		ld	ra,40(sp)
 274              		.cfi_restore 1
 275 016c 03340102 		ld	s0,32(sp)
 276              		.cfi_restore 8
 277              		.cfi_def_cfa 2, 48
 278 0170 83348101 		ld	s1,24(sp)
GAS LISTING /tmp/cculVh6W.s 			page 7


 279              		.cfi_restore 9
 280              	.LVL23:
 281 0174 03390101 		ld	s2,16(sp)
 282              		.cfi_restore 18
 283 0178 83398100 		ld	s3,8(sp)
 284              		.cfi_restore 19
 285              	.LVL24:
 286 017c 13010103 		addi	sp,sp,48
 287              		.cfi_def_cfa_offset 0
 288 0180 67800000 		jr	ra
 289              		.cfi_endproc
 290              	.LFE13:
 292              	.Letext0:
 293              		.file 2 "src/../h/List.hpp"
 294              		.file 3 "src/../h/TCB.hpp"
 295              		.file 4 "src/../h/../lib/hw.h"
 296              		.file 5 "src/../h/MemoryAllocator.hpp"
GAS LISTING /tmp/cculVh6W.s 			page 8

