GAS LISTING /tmp/ccLBuf7F.s 			page 1


   1              		.file	"main.cpp"
   2              		.option pic
   3              		.option norelax
   4              		.text
   5              	.Ltext0:
   6              		.align	2
   8              	_ZL15userMainWrapperPv:
   9              	.LFB33:
  10              		.file 1 "src/main.cpp"
   1:src/main.cpp  **** #include "../h/MemoryAllocator.hpp"
   2:src/main.cpp  **** #include "../h/syscall_c.hpp"
   3:src/main.cpp  **** #include "../h/TCB.hpp"
   4:src/main.cpp  **** #include "../h/ConsoleHandler.hpp"
   5:src/main.cpp  **** #include "../h/Riscv.h"
   6:src/main.cpp  **** #include "../h/Sleeping.hpp"
   7:src/main.cpp  **** #include "../h/Scheduler.hpp"
   8:src/main.cpp  **** 
   9:src/main.cpp  **** extern void userMain();
  10:src/main.cpp  **** 
  11:src/main.cpp  **** static void userMainWrapper(void* arg){
  11              		.loc 1 11 39
  12              		.cfi_startproc
  13              	.LVL0:
  14 0000 130101FF 		addi	sp,sp,-16
  15              		.cfi_def_cfa_offset 16
  16 0004 23341100 		sd	ra,8(sp)
  17 0008 23308100 		sd	s0,0(sp)
  18              		.cfi_offset 1, -8
  19              		.cfi_offset 8, -16
  20 000c 13040101 		addi	s0,sp,16
  21              		.cfi_def_cfa 8, 0
  12:src/main.cpp  ****     userMain();
  22              		.loc 1 12 5
  23              		.loc 1 12 13 is_stmt 0
  24 0010 97000000 		call	_Z8userMainv@plt
  24      E7800000 
  25              	.LVL1:
  13:src/main.cpp  **** }
  26              		.loc 1 13 1
  27 0018 83308100 		ld	ra,8(sp)
  28              		.cfi_restore 1
  29 001c 03340100 		ld	s0,0(sp)
  30              		.cfi_restore 8
  31              		.cfi_def_cfa 2, 16
  32 0020 13010101 		addi	sp,sp,16
  33              		.cfi_def_cfa_offset 0
  34 0024 67800000 		jr	ra
  35              		.cfi_endproc
  36              	.LFE33:
  38              		.align	2
  39              		.globl	main
  41              	main:
  42              	.LFB34:
  14:src/main.cpp  **** 
  15:src/main.cpp  **** void main(){
  43              		.loc 1 15 12 is_stmt 1
  44              		.cfi_startproc
GAS LISTING /tmp/ccLBuf7F.s 			page 2


  45 0028 130101FE 		addi	sp,sp,-32
  46              		.cfi_def_cfa_offset 32
  47 002c 233C1100 		sd	ra,24(sp)
  48 0030 23388100 		sd	s0,16(sp)
  49 0034 23349100 		sd	s1,8(sp)
  50 0038 23302101 		sd	s2,0(sp)
  51              		.cfi_offset 1, -8
  52              		.cfi_offset 8, -16
  53              		.cfi_offset 9, -24
  54              		.cfi_offset 18, -32
  55 003c 13040102 		addi	s0,sp,32
  56              		.cfi_def_cfa 8, 0
  16:src/main.cpp  ****     Riscv::writeStvec((uint64)&Riscv::supervisorTrap);
  57              		.loc 1 16 5
  58              		.loc 1 16 22 is_stmt 0
  59 0040 97070000 		la	a5,_ZN5Riscv14supervisorTrapEv
  59      83B70700 
  60              	.LVL2:
  61              	.LBB24:
  62              	.LBB25:
  63              		.file 2 "src/../h/Riscv.h"
   1:src/../h/Riscv.h **** //
   2:src/../h/Riscv.h **** // Created by os on 8/9/25.
   3:src/../h/Riscv.h **** //
   4:src/../h/Riscv.h **** 
   5:src/../h/Riscv.h **** #ifndef PROJECT_BASE_V1_1_RISCV_H
   6:src/../h/Riscv.h **** #define PROJECT_BASE_V1_1_RISCV_H
   7:src/../h/Riscv.h **** #include "../lib/hw.h"
   8:src/../h/Riscv.h **** 
   9:src/../h/Riscv.h **** class Riscv{
  10:src/../h/Riscv.h **** 
  11:src/../h/Riscv.h **** public:
  12:src/../h/Riscv.h **** 
  13:src/../h/Riscv.h ****     static void popSppSpie();
  14:src/../h/Riscv.h **** 
  15:src/../h/Riscv.h ****     static void supervisorTrap();
  16:src/../h/Riscv.h **** 
  17:src/../h/Riscv.h ****     static uint64 readScause();
  18:src/../h/Riscv.h **** 
  19:src/../h/Riscv.h ****     static void writeScause(uint64 scause);
  20:src/../h/Riscv.h **** 
  21:src/../h/Riscv.h ****     static uint64 readSepc();
  22:src/../h/Riscv.h **** 
  23:src/../h/Riscv.h ****     static void writeSepc(uint64 sepc);
  24:src/../h/Riscv.h **** 
  25:src/../h/Riscv.h ****     static uint64 readSstatus();
  26:src/../h/Riscv.h **** 
  27:src/../h/Riscv.h ****     static void writeSstatus(uint64 sstatus);
  28:src/../h/Riscv.h **** 
  29:src/../h/Riscv.h ****     static uint64 readStvec();
  30:src/../h/Riscv.h **** 
  31:src/../h/Riscv.h ****     static void writeStvec(uint64 stvec);
  32:src/../h/Riscv.h **** 
  33:src/../h/Riscv.h ****     static uint64 readStval();
  34:src/../h/Riscv.h **** 
  35:src/../h/Riscv.h ****     static void writeStval(uint64 stval);
  36:src/../h/Riscv.h **** 
GAS LISTING /tmp/ccLBuf7F.s 			page 3


  37:src/../h/Riscv.h ****     enum BitMaskStatus{
  38:src/../h/Riscv.h ****         SSTATUS_SIE = (1<<1),
  39:src/../h/Riscv.h ****         SSTATUS_SPIE = (1<<5),
  40:src/../h/Riscv.h ****         SSTATUS_SPP = (1<<8)
  41:src/../h/Riscv.h ****     };
  42:src/../h/Riscv.h **** 
  43:src/../h/Riscv.h ****     enum BitMaskSip{
  44:src/../h/Riscv.h ****         SIP_SSIP = (1<<1),
  45:src/../h/Riscv.h ****         SIP_STIP = (1<<5),
  46:src/../h/Riscv.h ****         SIP_SEIP = (1<<9),
  47:src/../h/Riscv.h ****     };
  48:src/../h/Riscv.h **** 
  49:src/../h/Riscv.h ****     static void msSip(uint64 mask);
  50:src/../h/Riscv.h **** 
  51:src/../h/Riscv.h ****     static void mcSip(uint64 mask);
  52:src/../h/Riscv.h **** 
  53:src/../h/Riscv.h ****     static void msSstatus(uint64 mask);
  54:src/../h/Riscv.h **** 
  55:src/../h/Riscv.h ****     static void mcSstatus(uint64 mask);
  56:src/../h/Riscv.h **** 
  57:src/../h/Riscv.h ****     static void overridea0(uint64 a0);
  58:src/../h/Riscv.h **** 
  59:src/../h/Riscv.h ****     static void turnOff();
  60:src/../h/Riscv.h **** 
  61:src/../h/Riscv.h **** private:
  62:src/../h/Riscv.h **** 
  63:src/../h/Riscv.h ****     static void handleSupervisorTrap();
  64:src/../h/Riscv.h **** 
  65:src/../h/Riscv.h **** };
  66:src/../h/Riscv.h **** 
  67:src/../h/Riscv.h **** inline uint64 Riscv::readScause() {
  68:src/../h/Riscv.h ****     uint64 volatile scause;
  69:src/../h/Riscv.h ****     __asm__ volatile("csrr %[scause], scause" : [scause] "=r" (scause));
  70:src/../h/Riscv.h ****     return scause;
  71:src/../h/Riscv.h **** }
  72:src/../h/Riscv.h **** 
  73:src/../h/Riscv.h **** inline void Riscv::writeScause(uint64 scause) {
  74:src/../h/Riscv.h ****     __asm__ volatile("csrw scause, %[scause]" : : [scause] "r" (scause));
  75:src/../h/Riscv.h **** }
  76:src/../h/Riscv.h **** 
  77:src/../h/Riscv.h **** inline uint64 Riscv::readSepc() {
  78:src/../h/Riscv.h ****     uint64 volatile sepc;
  79:src/../h/Riscv.h ****     __asm__ volatile("csrr %[sepc], sepc" : [sepc] "=r" (sepc));
  80:src/../h/Riscv.h ****     return sepc;
  81:src/../h/Riscv.h **** }
  82:src/../h/Riscv.h **** 
  83:src/../h/Riscv.h **** inline void Riscv::writeSepc(uint64 sepc) {
  84:src/../h/Riscv.h ****     __asm__ volatile("csrw sepc, %[sepc]" : : [sepc] "r" (sepc));
  85:src/../h/Riscv.h **** }
  86:src/../h/Riscv.h **** 
  87:src/../h/Riscv.h **** inline uint64 Riscv::readStval() {
  88:src/../h/Riscv.h ****     uint64 volatile stval;
  89:src/../h/Riscv.h ****     __asm__ volatile("csrr %[stval], stval" : [stval] "=r" (stval));
  90:src/../h/Riscv.h ****     return stval;
  91:src/../h/Riscv.h **** }
  92:src/../h/Riscv.h **** 
  93:src/../h/Riscv.h **** inline void Riscv::writeStval(uint64 stval) {
GAS LISTING /tmp/ccLBuf7F.s 			page 4


  94:src/../h/Riscv.h ****     __asm__ volatile("csrw stval, %[stval]" : : [stval] "r" (stval));
  95:src/../h/Riscv.h **** }
  96:src/../h/Riscv.h **** 
  97:src/../h/Riscv.h **** inline uint64 Riscv::readStvec() {
  98:src/../h/Riscv.h ****     uint64 volatile stvec;
  99:src/../h/Riscv.h ****     __asm__ volatile("csrr %[stvec], stvec" : [stvec] "=r" (stvec));
 100:src/../h/Riscv.h ****     return stvec;
 101:src/../h/Riscv.h **** }
 102:src/../h/Riscv.h **** 
 103:src/../h/Riscv.h **** inline void Riscv::writeStvec(uint64 stvec) {
 104:src/../h/Riscv.h ****     __asm__ volatile("csrw stvec, %[stvec]" : : [stvec] "r" (stvec));
  64              		.loc 2 104 5 is_stmt 1
  65              		.loc 2 104 69 is_stmt 0
  66              	#APP
  67              	# 104 "src/../h/Riscv.h" 1
 105              	}
  68              		csrw stvec, a5
  69              	# 0 "" 2
  70              	.LVL3:
  71              	#NO_APP
  72              	.LBE25:
  73              	.LBE24:
  17:src/main.cpp  ****     MemoryAllocator::initialize();
  74              		.loc 1 17 5 is_stmt 1
  75              		.loc 1 17 32 is_stmt 0
  76 004c 97000000 		call	_ZN15MemoryAllocator10initializeEv@plt
  76      E7800000 
  77              	.LVL4:
  18:src/main.cpp  ****     ConsoleHandler::initialize();
  78              		.loc 1 18 5 is_stmt 1
  79              		.loc 1 18 31 is_stmt 0
  80 0054 97000000 		call	_ZN14ConsoleHandler10initializeEv@plt
  80      E7800000 
  81              	.LVL5:
  19:src/main.cpp  ****     Scheduler::initialize();
  82              		.loc 1 19 5 is_stmt 1
  83              		.loc 1 19 26 is_stmt 0
  84 005c 97000000 		call	_ZN9Scheduler10initializeEv@plt
  84      E7800000 
  85              	.LVL6:
  20:src/main.cpp  ****     TCB* main = TCB::createThread(nullptr, nullptr, nullptr);
  86              		.loc 1 20 5 is_stmt 1
  87              		.loc 1 20 34 is_stmt 0
  88 0064 13060000 		li	a2,0
  89 0068 93050000 		li	a1,0
  90 006c 13050000 		li	a0,0
  91 0070 97000000 		call	_ZN3TCB12createThreadEPFvPvES0_S0_@plt
  91      E7800000 
  92              	.LVL7:
  21:src/main.cpp  ****     main->setSupervised();
  93              		.loc 1 21 5 is_stmt 1
  94              	.LBB26:
  95              	.LBB27:
  96              		.file 3 "src/../h/TCB.hpp"
   1:src/../h/TCB.hpp **** 
   2:src/../h/TCB.hpp **** #ifndef PROJECT_BASE_V1_1_TCB_HPP
   3:src/../h/TCB.hpp **** #define PROJECT_BASE_V1_1_TCB_HPP
GAS LISTING /tmp/ccLBuf7F.s 			page 5


   4:src/../h/TCB.hpp **** #include "../lib/hw.h"
   5:src/../h/TCB.hpp **** #include "../h/List.hpp"
   6:src/../h/TCB.hpp **** 
   7:src/../h/TCB.hpp **** class TCB{
   8:src/../h/TCB.hpp **** 
   9:src/../h/TCB.hpp **** public:
  10:src/../h/TCB.hpp ****     using Body = void(*)(void*);
  11:src/../h/TCB.hpp **** 
  12:src/../h/TCB.hpp ****     bool isFinished() const { return finished; }
  13:src/../h/TCB.hpp **** 
  14:src/../h/TCB.hpp ****     void setFinished(bool finished) { this->finished = finished; }
  15:src/../h/TCB.hpp **** 
  16:src/../h/TCB.hpp ****     void setSleeping(bool sleeping) { this->sleeping = sleeping; }
  17:src/../h/TCB.hpp **** 
  18:src/../h/TCB.hpp ****     bool isSleeping() const { return sleeping; }
  19:src/../h/TCB.hpp **** 
  20:src/../h/TCB.hpp ****     bool isActive() const { return active; }
  21:src/../h/TCB.hpp **** 
  22:src/../h/TCB.hpp ****     void setActive(bool active) { this->active = active; }
  23:src/../h/TCB.hpp **** 
  24:src/../h/TCB.hpp ****     void setSupervised() { supervised = true; };
  97              		.loc 3 24 28
  98              		.loc 3 24 39 is_stmt 0
  99 0078 13091000 		li	s2,1
 100 007c A30C2503 		sb	s2,57(a0)
 101              	.LVL8:
 102              	.LBE27:
 103              	.LBE26:
  22:src/main.cpp  ****     TCB::running = main;
 104              		.loc 1 22 5 is_stmt 1
 105              		.loc 1 22 18 is_stmt 0
 106 0080 97070000 		la	a5,_ZN3TCB7runningE
 106      83B70700 
 107 0088 23B0A700 		sd	a0,0(a5)
  23:src/main.cpp  ****     TCB* console = TCB::createThread(ConsoleHandler::handleOutputThread, nullptr, MemoryAllocator::
 108              		.loc 1 23 5 is_stmt 1
 109              		.loc 1 23 37 is_stmt 0
 110 008c 37850000 		li	a0,32768
 111              	.LVL9:
 112 0090 97000000 		call	_ZN15MemoryAllocator8allocateEm@plt
 112      E7800000 
 113              	.LVL10:
 114 0098 13060500 		mv	a2,a0
 115 009c 93050000 		li	a1,0
 116 00a0 17050000 		la	a0,_ZN14ConsoleHandler18handleOutputThreadEPv
 116      03350500 
 117 00a8 97000000 		call	_ZN3TCB12createThreadEPFvPvES0_S0_@plt
 117      E7800000 
 118              	.LVL11:
 119 00b0 93040500 		mv	s1,a0
 120              	.LVL12:
  24:src/main.cpp  ****     console->setSupervised();
 121              		.loc 1 24 5 is_stmt 1
 122              	.LBB28:
 123              	.LBB29:
 124              		.loc 3 24 28
 125              		.loc 3 24 39 is_stmt 0
GAS LISTING /tmp/ccLBuf7F.s 			page 6


 126 00b4 A30C2503 		sb	s2,57(a0)
 127              	.LVL13:
 128              	.LBE29:
 129              	.LBE28:
  25:src/main.cpp  ****     TCB* userMain = TCB::createThread(userMainWrapper, nullptr, MemoryAllocator::allocate(DEFAULT_S
 130              		.loc 1 25 5 is_stmt 1
 131              		.loc 1 25 38 is_stmt 0
 132 00b8 37850000 		li	a0,32768
 133 00bc 97000000 		call	_ZN15MemoryAllocator8allocateEm@plt
 133      E7800000 
 134              	.LVL14:
 135 00c4 13060500 		mv	a2,a0
 136 00c8 93050000 		li	a1,0
 137 00cc 17050000 		lla	a0,_ZL15userMainWrapperPv
 137      13050500 
 138 00d4 97000000 		call	_ZN3TCB12createThreadEPFvPvES0_S0_@plt
 138      E7800000 
 139              	.LVL15:
 140 00dc 13090500 		mv	s2,a0
 141              	.LVL16:
  26:src/main.cpp  ****     Riscv::msSstatus(Riscv::SSTATUS_SPIE);
 142              		.loc 1 26 5 is_stmt 1
 143              	.LBB30:
 144              	.LBB31:
 106:src/../h/Riscv.h **** 
 107:src/../h/Riscv.h **** inline uint64 Riscv::readSstatus() {
 108:src/../h/Riscv.h ****     uint64 volatile sstatus;
 109:src/../h/Riscv.h ****     __asm__ volatile("csrr %[sstatus], sstatus" : [sstatus] "=r" (sstatus));
 110:src/../h/Riscv.h ****     return sstatus;
 111:src/../h/Riscv.h **** }
 112:src/../h/Riscv.h **** 
 113:src/../h/Riscv.h **** inline void Riscv::writeSstatus(uint64 sstatus) {
 114:src/../h/Riscv.h ****     __asm__ volatile("csrw sstatus, %[sstatus]" : : [sstatus] "r" (sstatus));
 115:src/../h/Riscv.h **** }
 116:src/../h/Riscv.h **** 
 117:src/../h/Riscv.h **** inline void Riscv::mcSip(uint64 mask) {
 118:src/../h/Riscv.h ****     __asm__ volatile("csrc sip, %[mask]" : : [mask] "r" (mask));
 119:src/../h/Riscv.h **** }
 120:src/../h/Riscv.h **** 
 121:src/../h/Riscv.h **** inline void Riscv::msSip(uint64 mask) {
 122:src/../h/Riscv.h ****     __asm__ volatile("csrs sip, %[mask]" : : [mask] "r" (mask));
 123:src/../h/Riscv.h **** }
 124:src/../h/Riscv.h **** 
 125:src/../h/Riscv.h **** inline void Riscv::mcSstatus(uint64 mask) {
 126:src/../h/Riscv.h ****     __asm__ volatile("csrc sstatus, %[mask]" : : [mask] "r" (mask));
 127:src/../h/Riscv.h **** }
 128:src/../h/Riscv.h **** 
 129:src/../h/Riscv.h **** inline void Riscv::msSstatus(uint64 mask) {
 130:src/../h/Riscv.h ****     __asm__ volatile("csrs sstatus, %[mask]" : : [mask] "r" (mask));
 145              		.loc 2 130 5
 146              		.loc 2 130 68 is_stmt 0
 147 00e0 93070002 		li	a5,32
 148              	#APP
 149              	# 130 "src/../h/Riscv.h" 1
 131              	}
 150              		csrs sstatus, a5
 151              	# 0 "" 2
GAS LISTING /tmp/ccLBuf7F.s 			page 7


 152              	.LVL17:
 153              	#NO_APP
 154              	.LBE31:
 155              	.LBE30:
  27:src/main.cpp  ****     Riscv::mcSstatus(Riscv::SSTATUS_SPP);
 156              		.loc 1 27 5 is_stmt 1
 157              	.LBB32:
 158              	.LBB33:
 126:src/../h/Riscv.h **** }
 159              		.loc 2 126 5
 126:src/../h/Riscv.h **** }
 160              		.loc 2 126 68 is_stmt 0
 161 00e8 93070010 		li	a5,256
 162              	#APP
 163              	# 126 "src/../h/Riscv.h" 1
 164              		csrc sstatus, a5
 165              	# 0 "" 2
 166              	.LVL18:
 167              	#NO_APP
 168              	.LBE33:
 169              	.LBE32:
  28:src/main.cpp  ****     Riscv::popSppSpie();
 170              		.loc 1 28 5 is_stmt 1
 171              		.loc 1 28 22 is_stmt 0
 172 00f0 97000000 		call	_ZN5Riscv10popSppSpieEv@plt
 172      E7800000 
 173              	.LVL19:
 174              	.L5:
  29:src/main.cpp  **** 
  30:src/main.cpp  ****     while (!userMain->isFinished() && !TCB::error())
 175              		.loc 1 30 5 is_stmt 1
 176              		.loc 1 30 36
 177              	.LBB34:
 178              	.LBB35:
  12:src/../h/TCB.hpp **** 
 179              		.loc 3 12 31
  12:src/../h/TCB.hpp **** 
 180              		.loc 3 12 38 is_stmt 0
 181 00f8 83478902 		lbu	a5,40(s2)
 182              	.LVL20:
 183              	.LBE35:
 184              	.LBE34:
 185              		.loc 1 30 36
 186 00fc 63900702 		bnez	a5,.L4
 187              	.LBB36:
 188              	.LBB37:
  25:src/../h/TCB.hpp **** 
  26:src/../h/TCB.hpp ****     uint64 getTimeSlice() const { return timeSlice; }
  27:src/../h/TCB.hpp **** 
  28:src/../h/TCB.hpp ****     static TCB* createThread(Body body, void* args, void* stack);
  29:src/../h/TCB.hpp **** 
  30:src/../h/TCB.hpp ****     static void freeThread(TCB* t);
  31:src/../h/TCB.hpp **** 
  32:src/../h/TCB.hpp ****     static TCB* running;
  33:src/../h/TCB.hpp **** 
  34:src/../h/TCB.hpp ****     static void sleep(time_t time, TCB* t);
  35:src/../h/TCB.hpp **** 
GAS LISTING /tmp/ccLBuf7F.s 			page 8


  36:src/../h/TCB.hpp ****     static void freeGarbage();
  37:src/../h/TCB.hpp **** 
  38:src/../h/TCB.hpp ****     static bool error() { return fatalError; }
 189              		.loc 3 38 27 is_stmt 1
 190              		.loc 3 38 34 is_stmt 0
 191 0100 97070000 		la	a5,_ZN3TCB10fatalErrorE
 191      83B70700 
 192 0108 83C70700 		lbu	a5,0(a5)
 193              	.LBE37:
 194              	.LBE36:
 195              		.loc 1 30 36
 196 010c 63980700 		bnez	a5,.L4
  31:src/main.cpp  ****         thread_dispatch();
 197              		.loc 1 31 9 is_stmt 1
 198              		.loc 1 31 24 is_stmt 0
 199 0110 97000000 		call	_Z15thread_dispatchv@plt
 199      E7800000 
 200              	.LVL21:
  30:src/main.cpp  ****         thread_dispatch();
 201              		.loc 1 30 5
 202 0118 6FF01FFE 		j	.L5
 203              	.L4:
  32:src/main.cpp  **** 
  33:src/main.cpp  ****     ConsoleHandler::disable();
 204              		.loc 1 33 5 is_stmt 1 discriminator 4
 205              	.LBB38:
 206              	.LBB39:
 207              		.file 4 "src/../h/ConsoleHandler.hpp"
   1:src/../h/ConsoleHandler.hpp **** 
   2:src/../h/ConsoleHandler.hpp **** #ifndef PROJECT_BASE_V1_1_CONSOLEHANDLER_HPP
   3:src/../h/ConsoleHandler.hpp **** #define PROJECT_BASE_V1_1_CONSOLEHANDLER_HPP
   4:src/../h/ConsoleHandler.hpp **** 
   5:src/../h/ConsoleHandler.hpp **** #include "ConsoleBuffer.hpp"
   6:src/../h/ConsoleHandler.hpp **** #include "../lib/hw.h"
   7:src/../h/ConsoleHandler.hpp **** 
   8:src/../h/ConsoleHandler.hpp **** class ConsoleHandler{
   9:src/../h/ConsoleHandler.hpp **** 
  10:src/../h/ConsoleHandler.hpp **** public:
  11:src/../h/ConsoleHandler.hpp **** 
  12:src/../h/ConsoleHandler.hpp ****     static void handleOutputThread(void* arg);
  13:src/../h/ConsoleHandler.hpp **** 
  14:src/../h/ConsoleHandler.hpp ****     static void handleInput();
  15:src/../h/ConsoleHandler.hpp **** 
  16:src/../h/ConsoleHandler.hpp ****     static void initialize();
  17:src/../h/ConsoleHandler.hpp **** 
  18:src/../h/ConsoleHandler.hpp ****     static void disable() { working = false; }
 208              		.loc 4 18 29 discriminator 4
 209              		.loc 4 18 37 is_stmt 0 discriminator 4
 210 011c 97070000 		la	a5,_ZN14ConsoleHandler7workingE
 210      83B70700 
 211 0124 23800700 		sb	zero,0(a5)
 212              	.L6:
 213              	.LBE39:
 214              	.LBE38:
  34:src/main.cpp  ****     while (!(console->isFinished() && console->isActive()));
 215              		.loc 1 34 5 is_stmt 1
 216              		.loc 1 34 12
GAS LISTING /tmp/ccLBuf7F.s 			page 9


 217              	.LVL22:
 218              	.LBB40:
 219              	.LBB41:
  12:src/../h/TCB.hpp **** 
 220              		.loc 3 12 31
  12:src/../h/TCB.hpp **** 
 221              		.loc 3 12 38 is_stmt 0
 222 0128 83C78402 		lbu	a5,40(s1)
 223              	.LVL23:
 224              	.LBE41:
 225              	.LBE40:
 226              		.loc 1 34 12
 227 012c E38E07FE 		beqz	a5,.L6
 228              	.LVL24:
 229              	.LBB42:
 230              	.LBB43:
  20:src/../h/TCB.hpp **** 
 231              		.loc 3 20 29 is_stmt 1
  20:src/../h/TCB.hpp **** 
 232              		.loc 3 20 36 is_stmt 0
 233 0130 83C79402 		lbu	a5,41(s1)
 234              	.LVL25:
 235              	.LBE43:
 236              	.LBE42:
 237              		.loc 1 34 12
 238 0134 E38A07FE 		beqz	a5,.L6
  35:src/main.cpp  ****     Sleeping::erase();
 239              		.loc 1 35 5 is_stmt 1
 240              		.loc 1 35 20 is_stmt 0
 241 0138 97000000 		call	_ZN8Sleeping5eraseEv@plt
 241      E7800000 
 242              	.LVL26:
  36:src/main.cpp  ****     Scheduler::erase();
 243              		.loc 1 36 5 is_stmt 1
 244              		.loc 1 36 21 is_stmt 0
 245 0140 97000000 		call	_ZN9Scheduler5eraseEv@plt
 245      E7800000 
 246              	.LVL27:
  37:src/main.cpp  ****     TCB::freeGarbage();
 247              		.loc 1 37 5 is_stmt 1
 248              		.loc 1 37 21 is_stmt 0
 249 0148 97000000 		call	_ZN3TCB11freeGarbageEv@plt
 249      E7800000 
 250              	.LVL28:
  38:src/main.cpp  ****     ConsoleHandler::free();
 251              		.loc 1 38 5 is_stmt 1
 252              		.loc 1 38 25 is_stmt 0
 253 0150 97000000 		call	_ZN14ConsoleHandler4freeEv@plt
 253      E7800000 
 254              	.LVL29:
  39:src/main.cpp  ****     Riscv::turnOff();
 255              		.loc 1 39 5 is_stmt 1
 256              	.LBB44:
 257              	.LBB45:
 132:src/../h/Riscv.h **** 
 133:src/../h/Riscv.h **** inline void Riscv::overridea0(uint64 a0){
 134:src/../h/Riscv.h ****     __asm__ volatile ("sd %0, 10 * 8(fp)" : : "r" (a0));
GAS LISTING /tmp/ccLBuf7F.s 			page 10


 135:src/../h/Riscv.h **** }
 136:src/../h/Riscv.h **** 
 137:src/../h/Riscv.h **** inline void Riscv::turnOff() {
 138:src/../h/Riscv.h ****     __asm__ volatile("li t0, 0x100000");
 258              		.loc 2 138 5
 259              		.loc 2 138 40 is_stmt 0
 260              	#APP
 261              	# 138 "src/../h/Riscv.h" 1
 139              	    __asm__ volatile("li t1, 0x5555");
 262              		li t0, 0x100000
 263              	# 0 "" 2
 264              		.loc 2 139 5 is_stmt 1
 265              		.loc 2 139 38 is_stmt 0
 266              	# 139 "src/../h/Riscv.h" 1
 140              	    __asm__ volatile("sw t1, (t0)");
 267              		li t1, 0x5555
 268              	# 0 "" 2
 269              		.loc 2 140 5 is_stmt 1
 270              		.loc 2 140 36 is_stmt 0
 271              	# 140 "src/../h/Riscv.h" 1
 141              	}
 272              		sw t1, (t0)
 273              	# 0 "" 2
 274              	#NO_APP
 275              	.LBE45:
 276              	.LBE44:
  40:src/main.cpp  **** }...
 277              		.loc 1 40 1
 278 0168 83308101 		ld	ra,24(sp)
 279              		.cfi_restore 1
 280 016c 03340101 		ld	s0,16(sp)
 281              		.cfi_restore 8
 282              		.cfi_def_cfa 2, 32
 283 0170 83348100 		ld	s1,8(sp)
 284              		.cfi_restore 9
 285              	.LVL30:
 286 0174 03390100 		ld	s2,0(sp)
 287              		.cfi_restore 18
 288              	.LVL31:
 289 0178 13010102 		addi	sp,sp,32
 290              		.cfi_def_cfa_offset 0
 291 017c 67800000 		jr	ra
 292              		.cfi_endproc
 293              	.LFE34:
 295              	.Letext0:
 296              		.file 5 "src/../h/../lib/hw.h"
 297              		.file 6 "src/../h/MemoryAllocator.hpp"
 298              		.file 7 "src/../h/../h/List.hpp"
 299              		.file 8 "src/../h/Sem.hpp"
 300              		.file 9 "src/../h/ConsoleBuffer.hpp"
 301              		.file 10 "src/../h/Sleeping.hpp"
 302              		.file 11 "src/../h/Scheduler.hpp"
 303              		.file 12 "src/../h/syscall_c.hpp"
GAS LISTING /tmp/ccLBuf7F.s 			page 11

