GAS LISTING /tmp/ccwFq29m.s 			page 1


   1              		.file	"MemoryAllocator.cpp"
   2              		.option pic
   3              		.option norelax
   4              		.text
   5              	.Ltext0:
   6              		.align	2
   7              		.globl	_ZN15MemoryAllocator12getFreeSpaceEv
   9              	_ZN15MemoryAllocator12getFreeSpaceEv:
  10              	.LFB0:
  11              		.file 1 "src/MemoryAllocator.cpp"
   1:src/MemoryAllocator.cpp **** #include "../h/MemoryAllocator.hpp"
   2:src/MemoryAllocator.cpp **** 
   3:src/MemoryAllocator.cpp **** size_t MemoryAllocator::freeSpace = 0;
   4:src/MemoryAllocator.cpp **** size_t MemoryAllocator::largestFreeBlock = 0;
   5:src/MemoryAllocator.cpp **** MemoryAllocator::Fragment* MemoryAllocator::allocatedHead = nullptr;
   6:src/MemoryAllocator.cpp **** MemoryAllocator::Fragment* MemoryAllocator::freeHead = nullptr;
   7:src/MemoryAllocator.cpp **** 
   8:src/MemoryAllocator.cpp **** size_t MemoryAllocator::getFreeSpace() {
  12              		.loc 1 8 40
  13              		.cfi_startproc
  14 0000 130101FF 		addi	sp,sp,-16
  15              		.cfi_def_cfa_offset 16
  16 0004 23348100 		sd	s0,8(sp)
  17              		.cfi_offset 8, -8
  18 0008 13040101 		addi	s0,sp,16
  19              		.cfi_def_cfa 8, 0
   9:src/MemoryAllocator.cpp ****     return freeSpace;
  20              		.loc 1 9 5
  10:src/MemoryAllocator.cpp **** }
  21              		.loc 1 10 1 is_stmt 0
  22 000c 17050000 		ld	a0,.LANCHOR0
  22      03350500 
  23 0014 03348100 		ld	s0,8(sp)
  24              		.cfi_restore 8
  25              		.cfi_def_cfa 2, 16
  26 0018 13010101 		addi	sp,sp,16
  27              		.cfi_def_cfa_offset 0
  28 001c 67800000 		jr	ra
  29              		.cfi_endproc
  30              	.LFE0:
  32              		.align	2
  33              		.globl	_ZN15MemoryAllocator19getLargestFreeBlockEv
  35              	_ZN15MemoryAllocator19getLargestFreeBlockEv:
  36              	.LFB1:
  11:src/MemoryAllocator.cpp **** 
  12:src/MemoryAllocator.cpp **** size_t MemoryAllocator::getLargestFreeBlock() {
  37              		.loc 1 12 47 is_stmt 1
  38              		.cfi_startproc
  39 0020 130101FF 		addi	sp,sp,-16
  40              		.cfi_def_cfa_offset 16
  41 0024 23348100 		sd	s0,8(sp)
  42              		.cfi_offset 8, -8
  43 0028 13040101 		addi	s0,sp,16
  44              		.cfi_def_cfa 8, 0
  13:src/MemoryAllocator.cpp ****     Fragment *f = freeHead;
  45              		.loc 1 13 5
  46              		.loc 1 13 15 is_stmt 0
GAS LISTING /tmp/ccwFq29m.s 			page 2


  47 002c 97070000 		ld	a5,.LANCHOR0+8
  47      83B70700 
  48              	.LVL0:
  14:src/MemoryAllocator.cpp ****     size_t size = 0;
  49              		.loc 1 14 5 is_stmt 1
  50              		.loc 1 14 12 is_stmt 0
  51 0034 13050000 		li	a0,0
  52 0038 6F008000 		j	.L6
  53              	.LVL1:
  54              	.L5:
  15:src/MemoryAllocator.cpp ****     while (f){
  16:src/MemoryAllocator.cpp ****         if(f->size > size)
  17:src/MemoryAllocator.cpp ****             size = f->size;
  18:src/MemoryAllocator.cpp ****         f = f->next;
  55              		.loc 1 18 9 is_stmt 1
  56              		.loc 1 18 11 is_stmt 0
  57 003c 83B70700 		ld	a5,0(a5)
  58              	.LVL2:
  59              	.L6:
  15:src/MemoryAllocator.cpp ****     while (f){
  60              		.loc 1 15 5 is_stmt 1
  15:src/MemoryAllocator.cpp ****     while (f){
  61              		.loc 1 15 12
  62 0040 638A0700 		beqz	a5,.L4
  16:src/MemoryAllocator.cpp ****             size = f->size;
  63              		.loc 1 16 9
  16:src/MemoryAllocator.cpp ****             size = f->size;
  64              		.loc 1 16 15 is_stmt 0
  65 0044 03B78700 		ld	a4,8(a5)
  16:src/MemoryAllocator.cpp ****             size = f->size;
  66              		.loc 1 16 9
  67 0048 E37AE5FE 		bleu	a4,a0,.L5
  17:src/MemoryAllocator.cpp ****         f = f->next;
  68              		.loc 1 17 18
  69 004c 13050700 		mv	a0,a4
  70              	.LVL3:
  71 0050 6FF0DFFE 		j	.L5
  72              	.LVL4:
  73              	.L4:
  19:src/MemoryAllocator.cpp ****     }
  20:src/MemoryAllocator.cpp ****     largestFreeBlock = size;
  74              		.loc 1 20 5 is_stmt 1
  75              		.loc 1 20 22 is_stmt 0
  76 0054 97070000 		sd	a0,.LANCHOR0+16,a5
  76      23B0A700 
  77              	.LVL5:
  21:src/MemoryAllocator.cpp ****     return largestFreeBlock;
  78              		.loc 1 21 5 is_stmt 1
  22:src/MemoryAllocator.cpp **** }
  79              		.loc 1 22 1 is_stmt 0
  80 005c 03348100 		ld	s0,8(sp)
  81              		.cfi_restore 8
  82              		.cfi_def_cfa 2, 16
  83 0060 13010101 		addi	sp,sp,16
  84              		.cfi_def_cfa_offset 0
  85 0064 67800000 		jr	ra
  86              		.cfi_endproc
GAS LISTING /tmp/ccwFq29m.s 			page 3


  87              	.LFE1:
  89              		.align	2
  90              		.globl	_ZN15MemoryAllocator18mergeFreeFragmentsEPNS_8FragmentES1_
  92              	_ZN15MemoryAllocator18mergeFreeFragmentsEPNS_8FragmentES1_:
  93              	.LFB2:
  23:src/MemoryAllocator.cpp **** 
  24:src/MemoryAllocator.cpp **** bool MemoryAllocator::mergeFreeFragments(Fragment *prev, Fragment *curr) {
  94              		.loc 1 24 74 is_stmt 1
  95              		.cfi_startproc
  96              	.LVL6:
  97 0068 130101FF 		addi	sp,sp,-16
  98              		.cfi_def_cfa_offset 16
  99 006c 23348100 		sd	s0,8(sp)
 100              		.cfi_offset 8, -8
 101 0070 13040101 		addi	s0,sp,16
 102              		.cfi_def_cfa 8, 0
  25:src/MemoryAllocator.cpp ****     if(!prev || !curr)
 103              		.loc 1 25 5
 104 0074 63080502 		beqz	a0,.L11
 105              		.loc 1 25 14 is_stmt 0 discriminator 1
 106 0078 638A0502 		beqz	a1,.L12
  26:src/MemoryAllocator.cpp ****         return false;
  27:src/MemoryAllocator.cpp ****     if((uint64)prev + prev->size != (uint64)curr)
 107              		.loc 1 27 5 is_stmt 1
 108              		.loc 1 27 29 is_stmt 0
 109 007c 83378500 		ld	a5,8(a0)
 110              		.loc 1 27 21
 111 0080 3307F500 		add	a4,a0,a5
 112              		.loc 1 27 5
 113 0084 6318B702 		bne	a4,a1,.L13
  28:src/MemoryAllocator.cpp ****         return false;
  29:src/MemoryAllocator.cpp ****     prev->size += curr->size;
 114              		.loc 1 29 5 is_stmt 1
 115              		.loc 1 29 25 is_stmt 0
 116 0088 03B78500 		ld	a4,8(a1)
 117              		.loc 1 29 16
 118 008c B387E700 		add	a5,a5,a4
 119 0090 2334F500 		sd	a5,8(a0)
  30:src/MemoryAllocator.cpp ****     prev->next = curr->next;
 120              		.loc 1 30 5 is_stmt 1
 121              		.loc 1 30 24 is_stmt 0
 122 0094 83B70500 		ld	a5,0(a1)
 123              		.loc 1 30 16
 124 0098 2330F500 		sd	a5,0(a0)
  31:src/MemoryAllocator.cpp ****     return true;
 125              		.loc 1 31 5 is_stmt 1
 126              		.loc 1 31 12 is_stmt 0
 127 009c 13051000 		li	a0,1
 128              	.LVL7:
 129 00a0 6F008001 		j	.L10
 130              	.LVL8:
 131              	.L11:
  26:src/MemoryAllocator.cpp ****     if((uint64)prev + prev->size != (uint64)curr)
 132              		.loc 1 26 16
 133 00a4 13050000 		li	a0,0
 134              	.LVL9:
 135 00a8 6F000001 		j	.L10
GAS LISTING /tmp/ccwFq29m.s 			page 4


 136              	.LVL10:
 137              	.L12:
 138 00ac 13050000 		li	a0,0
 139              	.LVL11:
 140 00b0 6F008000 		j	.L10
 141              	.LVL12:
 142              	.L13:
  28:src/MemoryAllocator.cpp ****     prev->size += curr->size;
 143              		.loc 1 28 16
 144 00b4 13050000 		li	a0,0
 145              	.LVL13:
 146              	.L10:
  32:src/MemoryAllocator.cpp **** }
 147              		.loc 1 32 1
 148 00b8 03348100 		ld	s0,8(sp)
 149              		.cfi_restore 8
 150              		.cfi_def_cfa 2, 16
 151 00bc 13010101 		addi	sp,sp,16
 152              		.cfi_def_cfa_offset 0
 153 00c0 67800000 		jr	ra
 154              		.cfi_endproc
 155              	.LFE2:
 157              		.align	2
 158              		.globl	_ZN15MemoryAllocator10initializeEv
 160              	_ZN15MemoryAllocator10initializeEv:
 161              	.LFB3:
  33:src/MemoryAllocator.cpp **** 
  34:src/MemoryAllocator.cpp **** void MemoryAllocator::initialize() {
 162              		.loc 1 34 36 is_stmt 1
 163              		.cfi_startproc
 164 00c4 130101FF 		addi	sp,sp,-16
 165              		.cfi_def_cfa_offset 16
 166 00c8 23348100 		sd	s0,8(sp)
 167              		.cfi_offset 8, -8
 168 00cc 13040101 		addi	s0,sp,16
 169              		.cfi_def_cfa 8, 0
  35:src/MemoryAllocator.cpp ****     freeSpace = ((const size_t)HEAP_END_ADDR - (const size_t)HEAP_START_ADDR);
 170              		.loc 1 35 5
 171              		.loc 1 35 46 is_stmt 0
 172 00d0 97070000 		la	a5,HEAP_START_ADDR
 172      83B70700 
 173 00d8 83B60700 		ld	a3,0(a5)
 174 00dc 97070000 		la	a5,HEAP_END_ADDR
 174      83B70700 
 175 00e4 03B70700 		ld	a4,0(a5)
 176 00e8 3307D740 		sub	a4,a4,a3
 177              		.loc 1 35 15
 178 00ec 97070000 		lla	a5,.LANCHOR0
 178      93870700 
 179 00f4 23B0E700 		sd	a4,0(a5)
  36:src/MemoryAllocator.cpp ****     largestFreeBlock = freeSpace;
 180              		.loc 1 36 5 is_stmt 1
 181              		.loc 1 36 22 is_stmt 0
 182 00f8 23B8E700 		sd	a4,16(a5)
  37:src/MemoryAllocator.cpp ****     freeHead = (Fragment*)HEAP_START_ADDR;
 183              		.loc 1 37 5 is_stmt 1
 184              		.loc 1 37 14 is_stmt 0
GAS LISTING /tmp/ccwFq29m.s 			page 5


 185 00fc 23B4D700 		sd	a3,8(a5)
  38:src/MemoryAllocator.cpp ****     freeHead->next = nullptr;
 186              		.loc 1 38 5 is_stmt 1
 187              		.loc 1 38 20 is_stmt 0
 188 0100 23B00600 		sd	zero,0(a3)
  39:src/MemoryAllocator.cpp ****     freeHead->size = freeSpace;
 189              		.loc 1 39 5 is_stmt 1
 190              		.loc 1 39 15 is_stmt 0
 191 0104 03B78700 		ld	a4,8(a5)
 192              		.loc 1 39 20
 193 0108 83B60700 		ld	a3,0(a5)
 194 010c 2334D700 		sd	a3,8(a4)
  40:src/MemoryAllocator.cpp ****     allocatedHead = nullptr;
 195              		.loc 1 40 5 is_stmt 1
 196              		.loc 1 40 19 is_stmt 0
 197 0110 23BC0700 		sd	zero,24(a5)
  41:src/MemoryAllocator.cpp **** }
 198              		.loc 1 41 1
 199 0114 03348100 		ld	s0,8(sp)
 200              		.cfi_restore 8
 201              		.cfi_def_cfa 2, 16
 202 0118 13010101 		addi	sp,sp,16
 203              		.cfi_def_cfa_offset 0
 204 011c 67800000 		jr	ra
 205              		.cfi_endproc
 206              	.LFE3:
 208              		.align	2
 209              		.globl	_ZN15MemoryAllocator8allocateEm
 211              	_ZN15MemoryAllocator8allocateEm:
 212              	.LFB4:
  42:src/MemoryAllocator.cpp **** 
  43:src/MemoryAllocator.cpp **** void *MemoryAllocator::allocate(size_t size) {
 213              		.loc 1 43 46 is_stmt 1
 214              		.cfi_startproc
 215              	.LVL14:
 216 0120 93070500 		mv	a5,a0
  44:src/MemoryAllocator.cpp ****     if(!freeHead)
 217              		.loc 1 44 5
 218              		.loc 1 44 8 is_stmt 0
 219 0124 17050000 		ld	a0,.LANCHOR0+8
 219      03350500 
 220              	.LVL15:
 221              		.loc 1 44 5
 222 012c 63080510 		beqz	a0,.L30
  43:src/MemoryAllocator.cpp ****     if(!freeHead)
 223              		.loc 1 43 46
 224 0130 130101FE 		addi	sp,sp,-32
 225              		.cfi_def_cfa_offset 32
 226 0134 233C1100 		sd	ra,24(sp)
 227 0138 23388100 		sd	s0,16(sp)
 228 013c 23349100 		sd	s1,8(sp)
 229              		.cfi_offset 1, -8
 230              		.cfi_offset 8, -16
 231              		.cfi_offset 9, -24
 232 0140 13040102 		addi	s0,sp,32
 233              		.cfi_def_cfa 8, 0
  45:src/MemoryAllocator.cpp ****         return nullptr;
GAS LISTING /tmp/ccwFq29m.s 			page 6


  46:src/MemoryAllocator.cpp **** 
  47:src/MemoryAllocator.cpp ****     size_t blockNum = size / MEM_BLOCK_SIZE;
 234              		.loc 1 47 5 is_stmt 1
 235              		.loc 1 47 12 is_stmt 0
 236 0144 93D46700 		srli	s1,a5,6
 237              	.LVL16:
  48:src/MemoryAllocator.cpp ****     if(size % MEM_BLOCK_SIZE != 0)
 238              		.loc 1 48 5 is_stmt 1
 239              		.loc 1 48 13 is_stmt 0
 240 0148 93F7F703 		andi	a5,a5,63
 241              	.LVL17:
 242              		.loc 1 48 5
 243 014c 63840700 		beqz	a5,.L19
  49:src/MemoryAllocator.cpp ****         blockNum++;
 244              		.loc 1 49 9 is_stmt 1
 245              		.loc 1 49 17 is_stmt 0
 246 0150 93841400 		addi	s1,s1,1
 247              	.LVL18:
 248              	.L19:
  50:src/MemoryAllocator.cpp **** 
  51:src/MemoryAllocator.cpp ****     size = blockNum * MEM_BLOCK_SIZE;
 249              		.loc 1 51 5 is_stmt 1
 250              		.loc 1 51 10 is_stmt 0
 251 0154 93946400 		slli	s1,s1,6
 252              	.LVL19:
  52:src/MemoryAllocator.cpp ****     size += HEADER_SIZE;
 253              		.loc 1 52 5 is_stmt 1
 254              		.loc 1 52 10 is_stmt 0
 255 0158 93840401 		addi	s1,s1,16
 256              	.LVL20:
  53:src/MemoryAllocator.cpp ****     getLargestFreeBlock();
 257              		.loc 1 53 5 is_stmt 1
 258              		.loc 1 53 24 is_stmt 0
 259 015c 97000000 		call	_ZN15MemoryAllocator19getLargestFreeBlockEv
 259      E7800000 
 260              	.LVL21:
  54:src/MemoryAllocator.cpp ****     if(size > largestFreeBlock)
 261              		.loc 1 54 5 is_stmt 1
 262              		.loc 1 54 13 is_stmt 0
 263 0164 97070000 		ld	a5,.LANCHOR0+16
 263      83B70700 
 264              		.loc 1 54 5
 265 016c 63E4970C 		bltu	a5,s1,.L28
  55:src/MemoryAllocator.cpp ****         return nullptr;
  56:src/MemoryAllocator.cpp **** 
  57:src/MemoryAllocator.cpp ****     Fragment* f = freeHead, *prev = nullptr;
 266              		.loc 1 57 5 is_stmt 1
 267              		.loc 1 57 15 is_stmt 0
 268 0170 17050000 		ld	a0,.LANCHOR0+8
 268      03350500 
 269              	.LVL22:
 270              		.loc 1 57 30
 271 0178 13070000 		li	a4,0
 272 017c 6F00C000 		j	.L21
 273              	.LVL23:
 274              	.L33:
  58:src/MemoryAllocator.cpp ****     while (f && f->size < size){
GAS LISTING /tmp/ccwFq29m.s 			page 7


  59:src/MemoryAllocator.cpp ****         prev = f;
 275              		.loc 1 59 9 is_stmt 1
  60:src/MemoryAllocator.cpp ****         f = f->next;
 276              		.loc 1 60 9
  59:src/MemoryAllocator.cpp ****         f = f->next;
 277              		.loc 1 59 14 is_stmt 0
 278 0180 13070500 		mv	a4,a0
 279              		.loc 1 60 11
 280 0184 03350500 		ld	a0,0(a0)
 281              	.LVL24:
 282              	.L21:
  58:src/MemoryAllocator.cpp ****     while (f && f->size < size){
 283              		.loc 1 58 5 is_stmt 1
  58:src/MemoryAllocator.cpp ****     while (f && f->size < size){
 284              		.loc 1 58 14
 285 0188 63060500 		beqz	a0,.L20
  58:src/MemoryAllocator.cpp ****     while (f && f->size < size){
 286              		.loc 1 58 20 is_stmt 0 discriminator 1
 287 018c 83378500 		ld	a5,8(a0)
  58:src/MemoryAllocator.cpp ****     while (f && f->size < size){
 288              		.loc 1 58 14 discriminator 1
 289 0190 E3E897FE 		bltu	a5,s1,.L33
 290              	.L20:
  61:src/MemoryAllocator.cpp ****     }
  62:src/MemoryAllocator.cpp **** 
  63:src/MemoryAllocator.cpp ****     if(!f)
 291              		.loc 1 63 5 is_stmt 1
 292 0194 63000506 		beqz	a0,.L17
  64:src/MemoryAllocator.cpp ****         return nullptr;
  65:src/MemoryAllocator.cpp **** 
  66:src/MemoryAllocator.cpp ****     size_t newSize = f->size - size;
 293              		.loc 1 66 5
 294              		.loc 1 66 25 is_stmt 0
 295 0198 83378500 		ld	a5,8(a0)
 296              		.loc 1 66 12
 297 019c B3879740 		sub	a5,a5,s1
 298              	.LVL25:
  67:src/MemoryAllocator.cpp ****     if(newSize >= MEM_BLOCK_SIZE){
 299              		.loc 1 67 5 is_stmt 1
 300              	.LBB2:
 301 01a0 9306F003 		li	a3,63
 302 01a4 63F8F606 		bleu	a5,a3,.L22
 303              	.LBB3:
  68:src/MemoryAllocator.cpp ****         Fragment* newAddr = (Fragment*)((size_t)f + size);
 304              		.loc 1 68 9
 305              		.loc 1 68 51 is_stmt 0
 306 01a8 B3069500 		add	a3,a0,s1
 307              	.LVL26:
  69:src/MemoryAllocator.cpp ****         if(prev)
 308              		.loc 1 69 9 is_stmt 1
 309 01ac 630E0704 		beqz	a4,.L23
  70:src/MemoryAllocator.cpp ****             prev->next = newAddr;
 310              		.loc 1 70 13
 311              		.loc 1 70 24 is_stmt 0
 312 01b0 2330D700 		sd	a3,0(a4)
 313              	.LVL27:
 314              	.L24:
GAS LISTING /tmp/ccwFq29m.s 			page 8


  71:src/MemoryAllocator.cpp ****         else
  72:src/MemoryAllocator.cpp ****             freeHead = newAddr;
  73:src/MemoryAllocator.cpp ****         newAddr->size = newSize;
 315              		.loc 1 73 9 is_stmt 1
 316              		.loc 1 73 23 is_stmt 0
 317 01b4 23B4F600 		sd	a5,8(a3)
  74:src/MemoryAllocator.cpp ****         newAddr->next = f->next;
 318              		.loc 1 74 9 is_stmt 1
 319              		.loc 1 74 28 is_stmt 0
 320 01b8 83370500 		ld	a5,0(a0)
 321              	.LVL28:
 322              		.loc 1 74 23
 323 01bc 23B0F600 		sd	a5,0(a3)
 324              	.LVL29:
 325              	.L25:
 326              	.LBE3:
 327              	.LBE2:
  75:src/MemoryAllocator.cpp ****     }
  76:src/MemoryAllocator.cpp ****     else {
  77:src/MemoryAllocator.cpp ****         if(prev){
  78:src/MemoryAllocator.cpp ****             prev->next = f->next;
  79:src/MemoryAllocator.cpp ****         }
  80:src/MemoryAllocator.cpp ****         else
  81:src/MemoryAllocator.cpp ****             freeHead = f->next;
  82:src/MemoryAllocator.cpp ****     }
  83:src/MemoryAllocator.cpp **** 
  84:src/MemoryAllocator.cpp ****     f->size = size;
 328              		.loc 1 84 5 is_stmt 1
 329              		.loc 1 84 13 is_stmt 0
 330 01c0 23349500 		sd	s1,8(a0)
  85:src/MemoryAllocator.cpp ****     f->next = nullptr;
 331              		.loc 1 85 5 is_stmt 1
 332              		.loc 1 85 13 is_stmt 0
 333 01c4 23300500 		sd	zero,0(a0)
  86:src/MemoryAllocator.cpp **** 
  87:src/MemoryAllocator.cpp ****     if(allocatedHead){
 334              		.loc 1 87 5 is_stmt 1
 335              		.loc 1 87 21 is_stmt 0
 336 01c8 97070000 		ld	a5,.LANCHOR0+24
 336      83B70700 
 337              		.loc 1 87 5
 338 01d0 63840700 		beqz	a5,.L27
  88:src/MemoryAllocator.cpp ****         f->next = allocatedHead;
 339              		.loc 1 88 9 is_stmt 1
 340              		.loc 1 88 17 is_stmt 0
 341 01d4 2330F500 		sd	a5,0(a0)
 342              	.L27:
  89:src/MemoryAllocator.cpp ****     }
  90:src/MemoryAllocator.cpp ****     allocatedHead = f;
 343              		.loc 1 90 5 is_stmt 1
 344              		.loc 1 90 19 is_stmt 0
 345 01d8 97070000 		lla	a5,.LANCHOR0
 345      93870700 
 346 01e0 23BCA700 		sd	a0,24(a5)
  91:src/MemoryAllocator.cpp **** 
  92:src/MemoryAllocator.cpp ****     void* ret = (void*)((uint64)f + HEADER_SIZE);
 347              		.loc 1 92 5 is_stmt 1
GAS LISTING /tmp/ccwFq29m.s 			page 9


 348              		.loc 1 92 35 is_stmt 0
 349 01e4 13050501 		addi	a0,a0,16
 350              	.LVL30:
  93:src/MemoryAllocator.cpp ****     freeSpace -= size;
 351              		.loc 1 93 5 is_stmt 1
 352              		.loc 1 93 15 is_stmt 0
 353 01e8 03B70700 		ld	a4,0(a5)
 354 01ec B3049740 		sub	s1,a4,s1
 355              	.LVL31:
 356 01f0 23B09700 		sd	s1,0(a5)
  94:src/MemoryAllocator.cpp **** 
  95:src/MemoryAllocator.cpp ****     return ret;
 357              		.loc 1 95 5 is_stmt 1
 358              	.LVL32:
 359              	.L17:
  96:src/MemoryAllocator.cpp **** }
 360              		.loc 1 96 1 is_stmt 0
 361 01f4 83308101 		ld	ra,24(sp)
 362              		.cfi_remember_state
 363              		.cfi_restore 1
 364 01f8 03340101 		ld	s0,16(sp)
 365              		.cfi_restore 8
 366              		.cfi_def_cfa 2, 32
 367 01fc 83348100 		ld	s1,8(sp)
 368              		.cfi_restore 9
 369 0200 13010102 		addi	sp,sp,32
 370              		.cfi_def_cfa_offset 0
 371 0204 67800000 		jr	ra
 372              	.LVL33:
 373              	.L23:
 374              		.cfi_restore_state
 375              	.LBB5:
 376              	.LBB4:
  72:src/MemoryAllocator.cpp ****         newAddr->size = newSize;
 377              		.loc 1 72 13 is_stmt 1
  72:src/MemoryAllocator.cpp ****         newAddr->size = newSize;
 378              		.loc 1 72 22 is_stmt 0
 379 0208 17070000 		sd	a3,.LANCHOR0+8,a4
 379      2330D700 
 380              	.LVL34:
 381 0210 6FF05FFA 		j	.L24
 382              	.LVL35:
 383              	.L22:
 384              	.LBE4:
  77:src/MemoryAllocator.cpp ****             prev->next = f->next;
 385              		.loc 1 77 9 is_stmt 1
 386 0214 63080700 		beqz	a4,.L26
  78:src/MemoryAllocator.cpp ****         }
 387              		.loc 1 78 13
  78:src/MemoryAllocator.cpp ****         }
 388              		.loc 1 78 29 is_stmt 0
 389 0218 83370500 		ld	a5,0(a0)
 390              	.LVL36:
  78:src/MemoryAllocator.cpp ****         }
 391              		.loc 1 78 24
 392 021c 2330F700 		sd	a5,0(a4)
 393              	.LVL37:
GAS LISTING /tmp/ccwFq29m.s 			page 10


 394 0220 6FF01FFA 		j	.L25
 395              	.LVL38:
 396              	.L26:
  81:src/MemoryAllocator.cpp ****     }
 397              		.loc 1 81 13 is_stmt 1
  81:src/MemoryAllocator.cpp ****     }
 398              		.loc 1 81 27 is_stmt 0
 399 0224 83370500 		ld	a5,0(a0)
 400              	.LVL39:
  81:src/MemoryAllocator.cpp ****     }
 401              		.loc 1 81 22
 402 0228 17070000 		sd	a5,.LANCHOR0+8,a4
 402      2330F700 
 403              	.LVL40:
 404 0230 6FF01FF9 		j	.L25
 405              	.LVL41:
 406              	.L28:
 407              	.LBE5:
  55:src/MemoryAllocator.cpp **** 
 408              		.loc 1 55 16
 409 0234 13050000 		li	a0,0
 410 0238 6FF0DFFB 		j	.L17
 411              	.LVL42:
 412              	.L30:
 413              		.cfi_def_cfa_register 2
 414              		.cfi_restore 1
 415              		.cfi_restore 8
 416              		.cfi_restore 9
 417              		.loc 1 96 1
 418 023c 67800000 		ret
 419              		.cfi_endproc
 420              	.LFE4:
 422              		.align	2
 423              		.globl	_ZN15MemoryAllocator13putInFreeListEPvm
 425              	_ZN15MemoryAllocator13putInFreeListEPvm:
 426              	.LFB6:
  97:src/MemoryAllocator.cpp **** 
  98:src/MemoryAllocator.cpp **** int MemoryAllocator::free(void *mem) {
  99:src/MemoryAllocator.cpp ****     if(!allocatedHead)
 100:src/MemoryAllocator.cpp ****         return -1;
 101:src/MemoryAllocator.cpp **** 
 102:src/MemoryAllocator.cpp ****     Fragment* f = allocatedHead, *prev = nullptr;
 103:src/MemoryAllocator.cpp **** 
 104:src/MemoryAllocator.cpp ****     while (f && (void*)((uint64)f + HEADER_SIZE) != mem){
 105:src/MemoryAllocator.cpp ****         prev = f;
 106:src/MemoryAllocator.cpp ****         f = f->next;
 107:src/MemoryAllocator.cpp ****     }
 108:src/MemoryAllocator.cpp **** 
 109:src/MemoryAllocator.cpp ****     if(!f)
 110:src/MemoryAllocator.cpp ****         return -1;
 111:src/MemoryAllocator.cpp **** 
 112:src/MemoryAllocator.cpp ****     if(prev)
 113:src/MemoryAllocator.cpp ****         prev->next = f->next;
 114:src/MemoryAllocator.cpp ****     else
 115:src/MemoryAllocator.cpp ****         allocatedHead = f->next;
 116:src/MemoryAllocator.cpp **** 
 117:src/MemoryAllocator.cpp ****     f->next = nullptr;
GAS LISTING /tmp/ccwFq29m.s 			page 11


 118:src/MemoryAllocator.cpp **** 
 119:src/MemoryAllocator.cpp ****     freeSpace+=f->size;
 120:src/MemoryAllocator.cpp ****     putInFreeList(f, f->size);
 121:src/MemoryAllocator.cpp **** 
 122:src/MemoryAllocator.cpp ****     return 0;
 123:src/MemoryAllocator.cpp **** 
 124:src/MemoryAllocator.cpp **** }
 125:src/MemoryAllocator.cpp **** 
 126:src/MemoryAllocator.cpp **** void MemoryAllocator::putInFreeList(void *addr, size_t size) {
 427              		.loc 1 126 62 is_stmt 1
 428              		.cfi_startproc
 429              	.LVL43:
 127:src/MemoryAllocator.cpp ****     Fragment* newAddr = (Fragment*)addr;
 430              		.loc 1 127 5
 128:src/MemoryAllocator.cpp ****     newAddr->next = nullptr;
 431              		.loc 1 128 5
 432              		.loc 1 128 19 is_stmt 0
 433 0240 23300500 		sd	zero,0(a0)
 129:src/MemoryAllocator.cpp **** 
 130:src/MemoryAllocator.cpp ****     if(!freeHead){
 434              		.loc 1 130 5 is_stmt 1
 435              		.loc 1 130 8 is_stmt 0
 436 0244 17070000 		ld	a4,.LANCHOR0+8
 436      03370700 
 437              		.loc 1 130 5
 438 024c 630A0702 		beqz	a4,.L44
 126:src/MemoryAllocator.cpp ****     Fragment* newAddr = (Fragment*)addr;
 439              		.loc 1 126 62
 440 0250 130101FE 		addi	sp,sp,-32
 441              		.cfi_def_cfa_offset 32
 442 0254 233C1100 		sd	ra,24(sp)
 443 0258 23388100 		sd	s0,16(sp)
 444 025c 23349100 		sd	s1,8(sp)
 445              		.cfi_offset 1, -8
 446              		.cfi_offset 8, -16
 447              		.cfi_offset 9, -24
 448 0260 13040102 		addi	s0,sp,32
 449              		.cfi_def_cfa 8, 0
 131:src/MemoryAllocator.cpp ****         freeHead = newAddr;
 132:src/MemoryAllocator.cpp ****         return;
 133:src/MemoryAllocator.cpp ****     }
 134:src/MemoryAllocator.cpp ****     Fragment* f = freeHead, *prev = nullptr;
 450              		.loc 1 134 15
 451 0264 93070700 		mv	a5,a4
 452              		.loc 1 134 30
 453 0268 93040000 		li	s1,0
 454              	.L35:
 455              	.LVL44:
 135:src/MemoryAllocator.cpp ****     while (f && newAddr > f){
 456              		.loc 1 135 5 is_stmt 1
 457              		.loc 1 135 14
 458 026c 63800702 		beqz	a5,.L37
 459              		.loc 1 135 14 is_stmt 0 discriminator 1
 460 0270 63FEA700 		bgeu	a5,a0,.L37
 136:src/MemoryAllocator.cpp ****         prev = f;
 461              		.loc 1 136 9 is_stmt 1
 462              	.LVL45:
GAS LISTING /tmp/ccwFq29m.s 			page 12


 137:src/MemoryAllocator.cpp ****         f = f->next;
 463              		.loc 1 137 9
 136:src/MemoryAllocator.cpp ****         prev = f;
 464              		.loc 1 136 14 is_stmt 0
 465 0274 93840700 		mv	s1,a5
 466              		.loc 1 137 11
 467 0278 83B70700 		ld	a5,0(a5)
 468              	.LVL46:
 135:src/MemoryAllocator.cpp ****     while (f && newAddr > f){
 469              		.loc 1 135 5
 470 027c 6FF01FFF 		j	.L35
 471              	.LVL47:
 472              	.L44:
 473              		.cfi_def_cfa_register 2
 474              		.cfi_restore 1
 475              		.cfi_restore 8
 476              		.cfi_restore 9
 131:src/MemoryAllocator.cpp ****         return;
 477              		.loc 1 131 9 is_stmt 1
 131:src/MemoryAllocator.cpp ****         return;
 478              		.loc 1 131 18 is_stmt 0
 479 0280 97070000 		sd	a0,.LANCHOR0+8,a5
 479      23B0A700 
 132:src/MemoryAllocator.cpp ****     }
 480              		.loc 1 132 9 is_stmt 1
 481 0288 67800000 		ret
 482              	.LVL48:
 483              	.L37:
 484              		.cfi_def_cfa_register 8
 485              		.cfi_offset 1, -8
 486              		.cfi_offset 8, -16
 487              		.cfi_offset 9, -24
 138:src/MemoryAllocator.cpp ****     }
 139:src/MemoryAllocator.cpp **** 
 140:src/MemoryAllocator.cpp ****     if(!prev){
 488              		.loc 1 140 5
 489 028c 638A0402 		beqz	s1,.L45
 141:src/MemoryAllocator.cpp ****         newAddr->next = freeHead;
 142:src/MemoryAllocator.cpp ****         freeHead = newAddr;
 143:src/MemoryAllocator.cpp ****         mergeFreeFragments(newAddr, newAddr->next);
 144:src/MemoryAllocator.cpp ****     }
 145:src/MemoryAllocator.cpp ****     else{
 146:src/MemoryAllocator.cpp ****         prev->next = newAddr;
 490              		.loc 1 146 9
 491              		.loc 1 146 20 is_stmt 0
 492 0290 23B0A400 		sd	a0,0(s1)
 147:src/MemoryAllocator.cpp ****         newAddr->next = f;
 493              		.loc 1 147 9 is_stmt 1
 494              		.loc 1 147 23 is_stmt 0
 495 0294 2330F500 		sd	a5,0(a0)
 496              	.LVL49:
 497              	.L39:
 148:src/MemoryAllocator.cpp ****         while (mergeFreeFragments(prev, prev->next));
 498              		.loc 1 148 9 is_stmt 1
 499              		.loc 1 148 34
 500 0298 83B50400 		ld	a1,0(s1)
 501 029c 13850400 		mv	a0,s1
GAS LISTING /tmp/ccwFq29m.s 			page 13


 502 02a0 97000000 		call	_ZN15MemoryAllocator18mergeFreeFragmentsEPNS_8FragmentES1_
 502      E7800000 
 503              	.LVL50:
 504 02a8 E31805FE 		bnez	a0,.L39
 505              	.L34:
 149:src/MemoryAllocator.cpp ****     }
 150:src/MemoryAllocator.cpp **** 
 151:src/MemoryAllocator.cpp **** }
 506              		.loc 1 151 1 is_stmt 0
 507 02ac 83308101 		ld	ra,24(sp)
 508              		.cfi_remember_state
 509              		.cfi_restore 1
 510 02b0 03340101 		ld	s0,16(sp)
 511              		.cfi_restore 8
 512              		.cfi_def_cfa 2, 32
 513 02b4 83348100 		ld	s1,8(sp)
 514              		.cfi_restore 9
 515              	.LVL51:
 516 02b8 13010102 		addi	sp,sp,32
 517              		.cfi_def_cfa_offset 0
 518 02bc 67800000 		jr	ra
 519              	.LVL52:
 520              	.L45:
 521              		.cfi_restore_state
 141:src/MemoryAllocator.cpp ****         freeHead = newAddr;
 522              		.loc 1 141 9 is_stmt 1
 141:src/MemoryAllocator.cpp ****         freeHead = newAddr;
 523              		.loc 1 141 23 is_stmt 0
 524 02c0 2330E500 		sd	a4,0(a0)
 142:src/MemoryAllocator.cpp ****         mergeFreeFragments(newAddr, newAddr->next);
 525              		.loc 1 142 9 is_stmt 1
 142:src/MemoryAllocator.cpp ****         mergeFreeFragments(newAddr, newAddr->next);
 526              		.loc 1 142 18 is_stmt 0
 527 02c4 97070000 		sd	a0,.LANCHOR0+8,a5
 527      23B0A700 
 528              	.LVL53:
 143:src/MemoryAllocator.cpp ****     }
 529              		.loc 1 143 9 is_stmt 1
 143:src/MemoryAllocator.cpp ****     }
 530              		.loc 1 143 27 is_stmt 0
 531 02cc 83350500 		ld	a1,0(a0)
 532              	.LVL54:
 533 02d0 97000000 		call	_ZN15MemoryAllocator18mergeFreeFragmentsEPNS_8FragmentES1_
 533      E7800000 
 534              	.LVL55:
 535 02d8 6FF05FFD 		j	.L34
 536              		.cfi_endproc
 537              	.LFE6:
 539              		.align	2
 540              		.globl	_ZN15MemoryAllocator4freeEPv
 542              	_ZN15MemoryAllocator4freeEPv:
 543              	.LFB5:
  98:src/MemoryAllocator.cpp ****     if(!allocatedHead)
 544              		.loc 1 98 38 is_stmt 1
 545              		.cfi_startproc
 546              	.LVL56:
 547 02dc 13070500 		mv	a4,a0
GAS LISTING /tmp/ccwFq29m.s 			page 14


  99:src/MemoryAllocator.cpp ****         return -1;
 548              		.loc 1 99 5
  99:src/MemoryAllocator.cpp ****         return -1;
 549              		.loc 1 99 8 is_stmt 0
 550 02e0 17050000 		ld	a0,.LANCHOR0+24
 550      03350500 
 551              	.LVL57:
  99:src/MemoryAllocator.cpp ****         return -1;
 552              		.loc 1 99 5
 553 02e8 63040508 		beqz	a0,.L52
 102:src/MemoryAllocator.cpp **** 
 554              		.loc 1 102 35
 555 02ec 93060000 		li	a3,0
 556              	.L49:
 557              	.LVL58:
 104:src/MemoryAllocator.cpp ****         prev = f;
 558              		.loc 1 104 5 is_stmt 1
 104:src/MemoryAllocator.cpp ****         prev = f;
 559              		.loc 1 104 14
 560 02f0 630C0500 		beqz	a0,.L48
 104:src/MemoryAllocator.cpp ****         prev = f;
 561              		.loc 1 104 35 is_stmt 0 discriminator 1
 562 02f4 93070501 		addi	a5,a0,16
 104:src/MemoryAllocator.cpp ****         prev = f;
 563              		.loc 1 104 14 discriminator 1
 564 02f8 6388E700 		beq	a5,a4,.L48
 105:src/MemoryAllocator.cpp ****         f = f->next;
 565              		.loc 1 105 9 is_stmt 1
 566              	.LVL59:
 106:src/MemoryAllocator.cpp ****     }
 567              		.loc 1 106 9
 105:src/MemoryAllocator.cpp ****         f = f->next;
 568              		.loc 1 105 14 is_stmt 0
 569 02fc 93060500 		mv	a3,a0
 106:src/MemoryAllocator.cpp ****     }
 570              		.loc 1 106 11
 571 0300 03350500 		ld	a0,0(a0)
 572              	.LVL60:
 104:src/MemoryAllocator.cpp ****         prev = f;
 573              		.loc 1 104 5
 574 0304 6FF0DFFE 		j	.L49
 575              	.L48:
 109:src/MemoryAllocator.cpp ****         return -1;
 576              		.loc 1 109 5 is_stmt 1
 577 0308 63080506 		beqz	a0,.L53
  98:src/MemoryAllocator.cpp ****     if(!allocatedHead)
 578              		.loc 1 98 38 is_stmt 0
 579 030c 130101FF 		addi	sp,sp,-16
 580              		.cfi_def_cfa_offset 16
 581 0310 23341100 		sd	ra,8(sp)
 582 0314 23308100 		sd	s0,0(sp)
 583              		.cfi_offset 1, -8
 584              		.cfi_offset 8, -16
 585 0318 13040101 		addi	s0,sp,16
 586              		.cfi_def_cfa 8, 0
 112:src/MemoryAllocator.cpp ****         prev->next = f->next;
 587              		.loc 1 112 5 is_stmt 1
GAS LISTING /tmp/ccwFq29m.s 			page 15


 588 031c 63820604 		beqz	a3,.L50
 113:src/MemoryAllocator.cpp ****     else
 589              		.loc 1 113 9
 113:src/MemoryAllocator.cpp ****     else
 590              		.loc 1 113 25 is_stmt 0
 591 0320 83370500 		ld	a5,0(a0)
 113:src/MemoryAllocator.cpp ****     else
 592              		.loc 1 113 20
 593 0324 23B0F600 		sd	a5,0(a3)
 594              	.LVL61:
 595              	.L51:
 117:src/MemoryAllocator.cpp **** 
 596              		.loc 1 117 5 is_stmt 1
 117:src/MemoryAllocator.cpp **** 
 597              		.loc 1 117 13 is_stmt 0
 598 0328 23300500 		sd	zero,0(a0)
 119:src/MemoryAllocator.cpp ****     putInFreeList(f, f->size);
 599              		.loc 1 119 5 is_stmt 1
 119:src/MemoryAllocator.cpp ****     putInFreeList(f, f->size);
 600              		.loc 1 119 19 is_stmt 0
 601 032c 83358500 		ld	a1,8(a0)
 119:src/MemoryAllocator.cpp ****     putInFreeList(f, f->size);
 602              		.loc 1 119 14
 603 0330 17070000 		lla	a4,.LANCHOR0
 603      13070700 
 604 0338 83370700 		ld	a5,0(a4)
 605 033c B387B700 		add	a5,a5,a1
 606 0340 2330F700 		sd	a5,0(a4)
 120:src/MemoryAllocator.cpp **** 
 607              		.loc 1 120 5 is_stmt 1
 120:src/MemoryAllocator.cpp **** 
 608              		.loc 1 120 18 is_stmt 0
 609 0344 97000000 		call	_ZN15MemoryAllocator13putInFreeListEPvm
 609      E7800000 
 610              	.LVL62:
 122:src/MemoryAllocator.cpp **** 
 611              		.loc 1 122 5 is_stmt 1
 122:src/MemoryAllocator.cpp **** 
 612              		.loc 1 122 12 is_stmt 0
 613 034c 13050000 		li	a0,0
 124:src/MemoryAllocator.cpp **** 
 614              		.loc 1 124 1
 615 0350 83308100 		ld	ra,8(sp)
 616              		.cfi_remember_state
 617              		.cfi_restore 1
 618 0354 03340100 		ld	s0,0(sp)
 619              		.cfi_restore 8
 620              		.cfi_def_cfa 2, 16
 621 0358 13010101 		addi	sp,sp,16
 622              		.cfi_def_cfa_offset 0
 623 035c 67800000 		jr	ra
 624              	.LVL63:
 625              	.L50:
 626              		.cfi_restore_state
 115:src/MemoryAllocator.cpp **** 
 627              		.loc 1 115 9 is_stmt 1
 115:src/MemoryAllocator.cpp **** 
GAS LISTING /tmp/ccwFq29m.s 			page 16


 628              		.loc 1 115 28 is_stmt 0
 629 0360 83370500 		ld	a5,0(a0)
 115:src/MemoryAllocator.cpp **** 
 630              		.loc 1 115 23
 631 0364 17070000 		sd	a5,.LANCHOR0+24,a4
 631      2330F700 
 632              	.LVL64:
 633 036c 6FF0DFFB 		j	.L51
 634              	.LVL65:
 635              	.L52:
 636              		.cfi_def_cfa_register 2
 637              		.cfi_restore 1
 638              		.cfi_restore 8
 100:src/MemoryAllocator.cpp **** 
 639              		.loc 1 100 17
 640 0370 1305F0FF 		li	a0,-1
 641 0374 67800000 		ret
 642              	.LVL66:
 643              	.L53:
 110:src/MemoryAllocator.cpp **** 
 644              		.loc 1 110 17
 645 0378 1305F0FF 		li	a0,-1
 646              	.LVL67:
 124:src/MemoryAllocator.cpp **** 
 647              		.loc 1 124 1
 648 037c 67800000 		ret
 649              		.cfi_endproc
 650              	.LFE5:
 652              		.globl	_ZN15MemoryAllocator8freeHeadE
 653              		.globl	_ZN15MemoryAllocator13allocatedHeadE
 654              		.globl	_ZN15MemoryAllocator16largestFreeBlockE
 655              		.globl	_ZN15MemoryAllocator9freeSpaceE
 656              		.bss
 657              		.align	3
 658              		.set	.LANCHOR0,. + 0
 661              	_ZN15MemoryAllocator9freeSpaceE:
 662 0000 00000000 		.zero	8
 662      00000000 
 665              	_ZN15MemoryAllocator8freeHeadE:
 666 0008 00000000 		.zero	8
 666      00000000 
 669              	_ZN15MemoryAllocator16largestFreeBlockE:
 670 0010 00000000 		.zero	8
 670      00000000 
 673              	_ZN15MemoryAllocator13allocatedHeadE:
 674 0018 00000000 		.zero	8
 674      00000000 
 675              		.text
 676              	.Letext0:
 677              		.file 2 "src/../h/../lib/hw.h"
 678              		.file 3 "src/../h/MemoryAllocator.hpp"
GAS LISTING /tmp/ccwFq29m.s 			page 17

