GAS LISTING /tmp/ccQCQHCl.s 			page 1


   1              		.file	"Scheduler.cpp"
   2              		.option pic
   3              		.option norelax
   4              		.text
   5              	.Ltext0:
   6              		.align	2
   7              		.globl	_ZN9Scheduler10initializeEv
   9              	_ZN9Scheduler10initializeEv:
  10              	.LFB11:
  11              		.file 1 "src/Scheduler.cpp"
   1:src/Scheduler.cpp **** #include "../h/Scheduler.hpp"
   2:src/Scheduler.cpp **** #include "../h/MemoryAllocator.hpp"
   3:src/Scheduler.cpp **** #include "../h/TCB.hpp"
   4:src/Scheduler.cpp **** 
   5:src/Scheduler.cpp **** List* Scheduler::list = nullptr;
   6:src/Scheduler.cpp **** 
   7:src/Scheduler.cpp **** void Scheduler::initialize() {
  12              		.loc 1 7 30
  13              		.cfi_startproc
  14 0000 130101FF 		addi	sp,sp,-16
  15              		.cfi_def_cfa_offset 16
  16 0004 23341100 		sd	ra,8(sp)
  17 0008 23308100 		sd	s0,0(sp)
  18              		.cfi_offset 1, -8
  19              		.cfi_offset 8, -16
  20 000c 13040101 		addi	s0,sp,16
  21              		.cfi_def_cfa 8, 0
   8:src/Scheduler.cpp ****     list = List::create();
  22              		.loc 1 8 5
  23              		.loc 1 8 24 is_stmt 0
  24 0010 97000000 		call	_ZN4List6createEv@plt
  24      E7800000 
  25              	.LVL0:
  26              		.loc 1 8 10
  27 0018 97070000 		sd	a0,.LANCHOR0,a5
  27      23B0A700 
   9:src/Scheduler.cpp **** }
  28              		.loc 1 9 1
  29 0020 83308100 		ld	ra,8(sp)
  30              		.cfi_restore 1
  31 0024 03340100 		ld	s0,0(sp)
  32              		.cfi_restore 8
  33              		.cfi_def_cfa 2, 16
  34 0028 13010101 		addi	sp,sp,16
  35              		.cfi_def_cfa_offset 0
  36 002c 67800000 		jr	ra
  37              		.cfi_endproc
  38              	.LFE11:
  40              		.align	2
  41              		.globl	_ZN9Scheduler3getEv
  43              	_ZN9Scheduler3getEv:
  44              	.LFB12:
  10:src/Scheduler.cpp **** 
  11:src/Scheduler.cpp **** TCB *Scheduler::get() {
  45              		.loc 1 11 23 is_stmt 1
  46              		.cfi_startproc
  47 0030 130101FF 		addi	sp,sp,-16
GAS LISTING /tmp/ccQCQHCl.s 			page 2


  48              		.cfi_def_cfa_offset 16
  49 0034 23341100 		sd	ra,8(sp)
  50 0038 23308100 		sd	s0,0(sp)
  51              		.cfi_offset 1, -8
  52              		.cfi_offset 8, -16
  53 003c 13040101 		addi	s0,sp,16
  54              		.cfi_def_cfa 8, 0
  12:src/Scheduler.cpp ****     return list->get();
  55              		.loc 1 12 5
  56              		.loc 1 12 21 is_stmt 0
  57 0040 17050000 		ld	a0,.LANCHOR0
  57      03350500 
  58 0048 97000000 		call	_ZN4List3getEv@plt
  58      E7800000 
  59              	.LVL1:
  13:src/Scheduler.cpp **** }
  60              		.loc 1 13 1
  61 0050 83308100 		ld	ra,8(sp)
  62              		.cfi_restore 1
  63 0054 03340100 		ld	s0,0(sp)
  64              		.cfi_restore 8
  65              		.cfi_def_cfa 2, 16
  66 0058 13010101 		addi	sp,sp,16
  67              		.cfi_def_cfa_offset 0
  68 005c 67800000 		jr	ra
  69              		.cfi_endproc
  70              	.LFE12:
  72              		.align	2
  73              		.globl	_ZN9Scheduler3putEP3TCB
  75              	_ZN9Scheduler3putEP3TCB:
  76              	.LFB13:
  14:src/Scheduler.cpp **** 
  15:src/Scheduler.cpp **** void Scheduler::put(TCB *t) {
  77              		.loc 1 15 29 is_stmt 1
  78              		.cfi_startproc
  79              	.LVL2:
  80 0060 130101FF 		addi	sp,sp,-16
  81              		.cfi_def_cfa_offset 16
  82 0064 23341100 		sd	ra,8(sp)
  83 0068 23308100 		sd	s0,0(sp)
  84              		.cfi_offset 1, -8
  85              		.cfi_offset 8, -16
  86 006c 13040101 		addi	s0,sp,16
  87              		.cfi_def_cfa 8, 0
  88 0070 93050500 		mv	a1,a0
  16:src/Scheduler.cpp ****     list->put(t);
  89              		.loc 1 16 5
  90              		.loc 1 16 14 is_stmt 0
  91 0074 17050000 		ld	a0,.LANCHOR0
  91      03350500 
  92              	.LVL3:
  93 007c 97000000 		call	_ZN4List3putEP3TCB@plt
  93      E7800000 
  94              	.LVL4:
  17:src/Scheduler.cpp **** }
  95              		.loc 1 17 1
  96 0084 83308100 		ld	ra,8(sp)
GAS LISTING /tmp/ccQCQHCl.s 			page 3


  97              		.cfi_restore 1
  98 0088 03340100 		ld	s0,0(sp)
  99              		.cfi_restore 8
 100              		.cfi_def_cfa 2, 16
 101 008c 13010101 		addi	sp,sp,16
 102              		.cfi_def_cfa_offset 0
 103 0090 67800000 		jr	ra
 104              		.cfi_endproc
 105              	.LFE13:
 107              		.align	2
 108              		.globl	_ZN9Scheduler5eraseEv
 110              	_ZN9Scheduler5eraseEv:
 111              	.LFB14:
  18:src/Scheduler.cpp **** 
  19:src/Scheduler.cpp **** void Scheduler::erase() {
 112              		.loc 1 19 25 is_stmt 1
 113              		.cfi_startproc
 114 0094 130101FF 		addi	sp,sp,-16
 115              		.cfi_def_cfa_offset 16
 116 0098 23341100 		sd	ra,8(sp)
 117 009c 23308100 		sd	s0,0(sp)
 118              		.cfi_offset 1, -8
 119              		.cfi_offset 8, -16
 120 00a0 13040101 		addi	s0,sp,16
 121              		.cfi_def_cfa 8, 0
  20:src/Scheduler.cpp ****     List::free(list);
 122              		.loc 1 20 5
 123              		.loc 1 20 15 is_stmt 0
 124 00a4 17050000 		ld	a0,.LANCHOR0
 124      03350500 
 125 00ac 97000000 		call	_ZN4List4freeEPS_@plt
 125      E7800000 
 126              	.LVL5:
  21:src/Scheduler.cpp **** }
 127              		.loc 1 21 1
 128 00b4 83308100 		ld	ra,8(sp)
 129              		.cfi_restore 1
 130 00b8 03340100 		ld	s0,0(sp)
 131              		.cfi_restore 8
 132              		.cfi_def_cfa 2, 16
 133 00bc 13010101 		addi	sp,sp,16
 134              		.cfi_def_cfa_offset 0
 135 00c0 67800000 		jr	ra
 136              		.cfi_endproc
 137              	.LFE14:
 139              		.globl	_ZN9Scheduler4listE
 140              		.bss
 141              		.align	3
 142              		.set	.LANCHOR0,. + 0
 145              	_ZN9Scheduler4listE:
 146 0000 00000000 		.zero	8
 146      00000000 
 147              		.text
 148              	.Letext0:
 149              		.file 2 "src/../h/../h/List.hpp"
 150              		.file 3 "src/../h/TCB.hpp"
 151              		.file 4 "src/../h/Scheduler.hpp"
GAS LISTING /tmp/ccQCQHCl.s 			page 4


 152              		.file 5 "src/../h/../lib/hw.h"
GAS LISTING /tmp/ccQCQHCl.s 			page 5

