GAS LISTING /tmp/cciwm8I3.s 			page 1


   1              		.file	"Sem.cpp"
   2              		.option pic
   3              		.option norelax
   4              		.text
   5              	.Ltext0:
   6              		.align	2
   7              		.globl	_ZN3Sem5blockEv
   9              	_ZN3Sem5blockEv:
  10              	.LFB15:
  11              		.file 1 "src/Sem.cpp"
   1:src/Sem.cpp   **** #include "../h/Sem.hpp"
   2:src/Sem.cpp   **** #include "../h/TCB.hpp"
   3:src/Sem.cpp   **** #include "../h/MemoryAllocator.hpp"
   4:src/Sem.cpp   **** #include "../h/Scheduler.hpp"
   5:src/Sem.cpp   **** 
   6:src/Sem.cpp   **** Sem *Sem::createSemaphore(unsigned val) {
   7:src/Sem.cpp   ****     Sem* s = (Sem*)MemoryAllocator::allocate(sizeof(Sem));
   8:src/Sem.cpp   ****     s->initialize(val);
   9:src/Sem.cpp   ****     return s;
  10:src/Sem.cpp   **** }
  11:src/Sem.cpp   **** 
  12:src/Sem.cpp   **** void Sem::wait() {
  13:src/Sem.cpp   ****     if(val == 0)
  14:src/Sem.cpp   ****         block();
  15:src/Sem.cpp   ****     else
  16:src/Sem.cpp   ****         val--;
  17:src/Sem.cpp   **** }
  18:src/Sem.cpp   **** 
  19:src/Sem.cpp   **** void Sem::signal() {
  20:src/Sem.cpp   ****     if(l->empty())
  21:src/Sem.cpp   ****         val++;
  22:src/Sem.cpp   ****     else
  23:src/Sem.cpp   ****         unblock();
  24:src/Sem.cpp   **** }
  25:src/Sem.cpp   **** 
  26:src/Sem.cpp   **** void Sem::block() {
  12              		.loc 1 26 19
  13              		.cfi_startproc
  14              	.LVL0:
  15 0000 130101FF 		addi	sp,sp,-16
  16              		.cfi_def_cfa_offset 16
  17 0004 23341100 		sd	ra,8(sp)
  18 0008 23308100 		sd	s0,0(sp)
  19              		.cfi_offset 1, -8
  20              		.cfi_offset 8, -16
  21 000c 13040101 		addi	s0,sp,16
  22              		.cfi_def_cfa 8, 0
  27:src/Sem.cpp   ****     TCB::running->setActive(false);
  23              		.loc 1 27 5
  24              		.loc 1 27 28 is_stmt 0
  25 0010 97070000 		la	a5,_ZN3TCB7runningE
  25      83B70700 
  26 0018 83B50700 		ld	a1,0(a5)
  27              	.LVL1:
  28              	.LBB12:
  29              	.LBB13:
  30              		.file 2 "src/../h/TCB.hpp"
GAS LISTING /tmp/cciwm8I3.s 			page 2


   1:src/../h/TCB.hpp **** 
   2:src/../h/TCB.hpp **** #ifndef PROJECT_BASE_V1_1_TCB_HPP
   3:src/../h/TCB.hpp **** #define PROJECT_BASE_V1_1_TCB_HPP
   4:src/../h/TCB.hpp **** #include "../lib/hw.h"
   5:src/../h/TCB.hpp **** #include "../h/List.hpp"
   6:src/../h/TCB.hpp **** 
   7:src/../h/TCB.hpp **** class TCB{
   8:src/../h/TCB.hpp **** 
   9:src/../h/TCB.hpp **** public:
  10:src/../h/TCB.hpp ****     using Body = void(*)(void*);
  11:src/../h/TCB.hpp **** 
  12:src/../h/TCB.hpp ****     bool isFinished() const { return finished; }
  13:src/../h/TCB.hpp **** 
  14:src/../h/TCB.hpp ****     void setFinished(bool finished) { this->finished = finished; }
  15:src/../h/TCB.hpp **** 
  16:src/../h/TCB.hpp ****     void setSleeping(bool sleeping) { this->sleeping = sleeping; }
  17:src/../h/TCB.hpp **** 
  18:src/../h/TCB.hpp ****     bool isSleeping() const { return sleeping; }
  19:src/../h/TCB.hpp **** 
  20:src/../h/TCB.hpp ****     bool isActive() const { return active; }
  21:src/../h/TCB.hpp **** 
  22:src/../h/TCB.hpp ****     void setActive(bool active) { this->active = active; }
  31              		.loc 2 22 35 is_stmt 1
  32              		.loc 2 22 48 is_stmt 0
  33 001c A3840502 		sb	zero,41(a1)
  34              	.LVL2:
  35              	.LBE13:
  36              	.LBE12:
  28:src/Sem.cpp   ****     l->put(TCB::running);
  37              		.loc 1 28 5 is_stmt 1
  38              		.loc 1 28 11 is_stmt 0
  39 0020 03358500 		ld	a0,8(a0)
  40              	.LVL3:
  41 0024 97000000 		call	_ZN4List3putEP3TCB@plt
  41      E7800000 
  42              	.LVL4:
  29:src/Sem.cpp   ****     TCB::dispatch();
  43              		.loc 1 29 5 is_stmt 1
  44              		.loc 1 29 18 is_stmt 0
  45 002c 97000000 		call	_ZN3TCB8dispatchEv@plt
  45      E7800000 
  46              	.LVL5:
  30:src/Sem.cpp   **** }
  47              		.loc 1 30 1
  48 0034 83308100 		ld	ra,8(sp)
  49              		.cfi_restore 1
  50 0038 03340100 		ld	s0,0(sp)
  51              		.cfi_restore 8
  52              		.cfi_def_cfa 2, 16
  53 003c 13010101 		addi	sp,sp,16
  54              		.cfi_def_cfa_offset 0
  55 0040 67800000 		jr	ra
  56              		.cfi_endproc
  57              	.LFE15:
  59              		.align	2
  60              		.globl	_ZN3Sem4waitEv
  62              	_ZN3Sem4waitEv:
GAS LISTING /tmp/cciwm8I3.s 			page 3


  63              	.LFB13:
  12:src/Sem.cpp   ****     if(val == 0)
  64              		.loc 1 12 18 is_stmt 1
  65              		.cfi_startproc
  66              	.LVL6:
  13:src/Sem.cpp   ****         block();
  67              		.loc 1 13 5
  13:src/Sem.cpp   ****         block();
  68              		.loc 1 13 8 is_stmt 0
  69 0044 83270500 		lw	a5,0(a0)
  13:src/Sem.cpp   ****         block();
  70              		.loc 1 13 5
  71 0048 63880700 		beqz	a5,.L10
  16:src/Sem.cpp   **** }
  72              		.loc 1 16 9 is_stmt 1
  16:src/Sem.cpp   **** }
  73              		.loc 1 16 12 is_stmt 0
  74 004c 9B87F7FF 		addiw	a5,a5,-1
  75 0050 2320F500 		sw	a5,0(a0)
  76 0054 67800000 		ret
  77              	.L10:
  12:src/Sem.cpp   ****     if(val == 0)
  78              		.loc 1 12 18
  79 0058 130101FF 		addi	sp,sp,-16
  80              		.cfi_def_cfa_offset 16
  81 005c 23341100 		sd	ra,8(sp)
  82 0060 23308100 		sd	s0,0(sp)
  83              		.cfi_offset 1, -8
  84              		.cfi_offset 8, -16
  85 0064 13040101 		addi	s0,sp,16
  86              		.cfi_def_cfa 8, 0
  14:src/Sem.cpp   ****     else
  87              		.loc 1 14 9 is_stmt 1
  14:src/Sem.cpp   ****     else
  88              		.loc 1 14 14 is_stmt 0
  89 0068 97000000 		call	_ZN3Sem5blockEv
  89      E7800000 
  90              	.LVL7:
  17:src/Sem.cpp   **** 
  91              		.loc 1 17 1
  92 0070 83308100 		ld	ra,8(sp)
  93              		.cfi_restore 1
  94 0074 03340100 		ld	s0,0(sp)
  95              		.cfi_restore 8
  96              		.cfi_def_cfa 2, 16
  97 0078 13010101 		addi	sp,sp,16
  98              		.cfi_def_cfa_offset 0
  99 007c 67800000 		jr	ra
 100              		.cfi_endproc
 101              	.LFE13:
 103              		.align	2
 104              		.globl	_ZN3Sem7unblockEv
 106              	_ZN3Sem7unblockEv:
 107              	.LFB16:
  31:src/Sem.cpp   **** 
  32:src/Sem.cpp   **** 
  33:src/Sem.cpp   **** void Sem::unblock() {
GAS LISTING /tmp/cciwm8I3.s 			page 4


 108              		.loc 1 33 21 is_stmt 1
 109              		.cfi_startproc
 110              	.LVL8:
 111 0080 130101FF 		addi	sp,sp,-16
 112              		.cfi_def_cfa_offset 16
 113 0084 23341100 		sd	ra,8(sp)
 114 0088 23308100 		sd	s0,0(sp)
 115              		.cfi_offset 1, -8
 116              		.cfi_offset 8, -16
 117 008c 13040101 		addi	s0,sp,16
 118              		.cfi_def_cfa 8, 0
  34:src/Sem.cpp   ****     TCB* t = l->get();
 119              		.loc 1 34 5
 120              		.loc 1 34 20 is_stmt 0
 121 0090 03358500 		ld	a0,8(a0)
 122              	.LVL9:
 123 0094 97000000 		call	_ZN4List3getEv@plt
 123      E7800000 
 124              	.LVL10:
  35:src/Sem.cpp   ****     if(!t)
 125              		.loc 1 35 5 is_stmt 1
 126 009c 630E0500 		beqz	a0,.L11
  36:src/Sem.cpp   ****         return;
  37:src/Sem.cpp   ****     t->setActive(true);
 127              		.loc 1 37 5
 128              	.LVL11:
 129              	.LBB14:
 130              	.LBB15:
 131              		.loc 2 22 35
 132              		.loc 2 22 48 is_stmt 0
 133 00a0 93071000 		li	a5,1
 134 00a4 A304F502 		sb	a5,41(a0)
 135              	.LVL12:
 136              	.LBE15:
 137              	.LBE14:
  38:src/Sem.cpp   ****     if(!t->isSleeping() && !t->isFinished())
 138              		.loc 1 38 5 is_stmt 1
 139              	.LBB16:
 140              	.LBB17:
  18:src/../h/TCB.hpp **** 
 141              		.loc 2 18 31
  18:src/../h/TCB.hpp **** 
 142              		.loc 2 18 38 is_stmt 0
 143 00a8 83478503 		lbu	a5,56(a0)
 144              	.LVL13:
 145              	.LBE17:
 146              	.LBE16:
 147              		.loc 1 38 25
 148 00ac 63960700 		bnez	a5,.L11
 149              	.LVL14:
 150              	.LBB18:
 151              	.LBB19:
  12:src/../h/TCB.hpp **** 
 152              		.loc 2 12 31 is_stmt 1
  12:src/../h/TCB.hpp **** 
 153              		.loc 2 12 38 is_stmt 0
 154 00b0 83478502 		lbu	a5,40(a0)
GAS LISTING /tmp/cciwm8I3.s 			page 5


 155              	.LVL15:
 156              	.LBE19:
 157              	.LBE18:
 158              		.loc 1 38 25
 159 00b4 638A0700 		beqz	a5,.L14
 160              	.LVL16:
 161              	.L11:
  39:src/Sem.cpp   ****         Scheduler::put(t);
  40:src/Sem.cpp   **** }
 162              		.loc 1 40 1
 163 00b8 83308100 		ld	ra,8(sp)
 164              		.cfi_remember_state
 165              		.cfi_restore 1
 166 00bc 03340100 		ld	s0,0(sp)
 167              		.cfi_restore 8
 168              		.cfi_def_cfa 2, 16
 169 00c0 13010101 		addi	sp,sp,16
 170              		.cfi_def_cfa_offset 0
 171 00c4 67800000 		jr	ra
 172              	.LVL17:
 173              	.L14:
 174              		.cfi_restore_state
  39:src/Sem.cpp   ****         Scheduler::put(t);
 175              		.loc 1 39 9 is_stmt 1
  39:src/Sem.cpp   ****         Scheduler::put(t);
 176              		.loc 1 39 23 is_stmt 0
 177 00c8 97000000 		call	_ZN9Scheduler3putEP3TCB@plt
 177      E7800000 
 178              	.LVL18:
 179 00d0 6FF09FFE 		j	.L11
 180              		.cfi_endproc
 181              	.LFE16:
 183              		.align	2
 184              		.globl	_ZN3Sem6signalEv
 186              	_ZN3Sem6signalEv:
 187              	.LFB14:
  19:src/Sem.cpp   ****     if(l->empty())
 188              		.loc 1 19 20 is_stmt 1
 189              		.cfi_startproc
 190              	.LVL19:
  20:src/Sem.cpp   ****         val++;
 191              		.loc 1 20 5
  20:src/Sem.cpp   ****         val++;
 192              		.loc 1 20 8 is_stmt 0
 193 00d4 83378500 		ld	a5,8(a0)
 194              	.LVL20:
 195              	.LBB20:
 196              	.LBB21:
 197              		.file 3 "src/../h/List.hpp"
   1:src/../h/List.hpp **** 
   2:src/../h/List.hpp **** #ifndef PROJECT_BASE_V1_1_LIST_HPP
   3:src/../h/List.hpp **** #define PROJECT_BASE_V1_1_LIST_HPP
   4:src/../h/List.hpp **** 
   5:src/../h/List.hpp **** class TCB;
   6:src/../h/List.hpp **** 
   7:src/../h/List.hpp **** class List{
   8:src/../h/List.hpp **** 
GAS LISTING /tmp/cciwm8I3.s 			page 6


   9:src/../h/List.hpp **** public:
  10:src/../h/List.hpp **** 
  11:src/../h/List.hpp ****     static List* create();
  12:src/../h/List.hpp **** 
  13:src/../h/List.hpp ****     void put(TCB* thread);
  14:src/../h/List.hpp **** 
  15:src/../h/List.hpp ****     TCB* get();
  16:src/../h/List.hpp **** 
  17:src/../h/List.hpp ****     bool empty() { return head == nullptr; }
 198              		.loc 3 17 20 is_stmt 1
 199              		.loc 3 17 27 is_stmt 0
 200 00d8 83B70700 		ld	a5,0(a5)
 201              	.LVL21:
 202              	.LBE21:
 203              	.LBE20:
  20:src/Sem.cpp   ****         val++;
 204              		.loc 1 20 5
 205 00dc 63860702 		beqz	a5,.L21
  19:src/Sem.cpp   ****     if(l->empty())
 206              		.loc 1 19 20
 207 00e0 130101FF 		addi	sp,sp,-16
 208              		.cfi_def_cfa_offset 16
 209 00e4 23341100 		sd	ra,8(sp)
 210 00e8 23308100 		sd	s0,0(sp)
 211              		.cfi_offset 1, -8
 212              		.cfi_offset 8, -16
 213 00ec 13040101 		addi	s0,sp,16
 214              		.cfi_def_cfa 8, 0
  23:src/Sem.cpp   **** }
 215              		.loc 1 23 9 is_stmt 1
  23:src/Sem.cpp   **** }
 216              		.loc 1 23 16 is_stmt 0
 217 00f0 97000000 		call	_ZN3Sem7unblockEv
 217      E7800000 
 218              	.LVL22:
  24:src/Sem.cpp   **** 
 219              		.loc 1 24 1
 220 00f8 83308100 		ld	ra,8(sp)
 221              		.cfi_restore 1
 222 00fc 03340100 		ld	s0,0(sp)
 223              		.cfi_restore 8
 224              		.cfi_def_cfa 2, 16
 225 0100 13010101 		addi	sp,sp,16
 226              		.cfi_def_cfa_offset 0
 227 0104 67800000 		jr	ra
 228              	.LVL23:
 229              	.L21:
  21:src/Sem.cpp   ****     else
 230              		.loc 1 21 9 is_stmt 1
 231 0108 83270500 		lw	a5,0(a0)
  21:src/Sem.cpp   ****     else
 232              		.loc 1 21 12 is_stmt 0
 233 010c 9B871700 		addiw	a5,a5,1
 234 0110 2320F500 		sw	a5,0(a0)
 235 0114 67800000 		ret
 236              		.cfi_endproc
 237              	.LFE14:
GAS LISTING /tmp/cciwm8I3.s 			page 7


 239              		.align	2
 240              		.globl	_ZN3Sem10initializeEj
 242              	_ZN3Sem10initializeEj:
 243              	.LFB17:
  41:src/Sem.cpp   **** 
  42:src/Sem.cpp   **** void Sem::initialize(unsigned val) {
 244              		.loc 1 42 36 is_stmt 1
 245              		.cfi_startproc
 246              	.LVL24:
 247 0118 130101FE 		addi	sp,sp,-32
 248              		.cfi_def_cfa_offset 32
 249 011c 233C1100 		sd	ra,24(sp)
 250 0120 23388100 		sd	s0,16(sp)
 251 0124 23349100 		sd	s1,8(sp)
 252              		.cfi_offset 1, -8
 253              		.cfi_offset 8, -16
 254              		.cfi_offset 9, -24
 255 0128 13040102 		addi	s0,sp,32
 256              		.cfi_def_cfa 8, 0
 257 012c 93040500 		mv	s1,a0
  43:src/Sem.cpp   ****     this->val = val;
 258              		.loc 1 43 5
 259              		.loc 1 43 15 is_stmt 0
 260 0130 2320B500 		sw	a1,0(a0)
  44:src/Sem.cpp   ****     l = List::create();
 261              		.loc 1 44 5 is_stmt 1
 262              		.loc 1 44 21 is_stmt 0
 263 0134 97000000 		call	_ZN4List6createEv@plt
 263      E7800000 
 264              	.LVL25:
 265              		.loc 1 44 7
 266 013c 23B4A400 		sd	a0,8(s1)
  45:src/Sem.cpp   **** }
 267              		.loc 1 45 1
 268 0140 83308101 		ld	ra,24(sp)
 269              		.cfi_restore 1
 270 0144 03340101 		ld	s0,16(sp)
 271              		.cfi_restore 8
 272              		.cfi_def_cfa 2, 32
 273 0148 83348100 		ld	s1,8(sp)
 274              		.cfi_restore 9
 275              	.LVL26:
 276 014c 13010102 		addi	sp,sp,32
 277              		.cfi_def_cfa_offset 0
 278 0150 67800000 		jr	ra
 279              		.cfi_endproc
 280              	.LFE17:
 282              		.align	2
 283              		.globl	_ZN3Sem15createSemaphoreEj
 285              	_ZN3Sem15createSemaphoreEj:
 286              	.LFB12:
   6:src/Sem.cpp   ****     Sem* s = (Sem*)MemoryAllocator::allocate(sizeof(Sem));
 287              		.loc 1 6 41 is_stmt 1
 288              		.cfi_startproc
 289              	.LVL27:
 290 0154 130101FE 		addi	sp,sp,-32
 291              		.cfi_def_cfa_offset 32
GAS LISTING /tmp/cciwm8I3.s 			page 8


 292 0158 233C1100 		sd	ra,24(sp)
 293 015c 23388100 		sd	s0,16(sp)
 294 0160 23349100 		sd	s1,8(sp)
 295 0164 23302101 		sd	s2,0(sp)
 296              		.cfi_offset 1, -8
 297              		.cfi_offset 8, -16
 298              		.cfi_offset 9, -24
 299              		.cfi_offset 18, -32
 300 0168 13040102 		addi	s0,sp,32
 301              		.cfi_def_cfa 8, 0
 302 016c 13090500 		mv	s2,a0
   7:src/Sem.cpp   ****     s->initialize(val);
 303              		.loc 1 7 5
   7:src/Sem.cpp   ****     s->initialize(val);
 304              		.loc 1 7 45 is_stmt 0
 305 0170 13050001 		li	a0,16
 306              	.LVL28:
 307 0174 97000000 		call	_ZN15MemoryAllocator8allocateEm@plt
 307      E7800000 
 308              	.LVL29:
 309 017c 93040500 		mv	s1,a0
 310              	.LVL30:
   8:src/Sem.cpp   ****     return s;
 311              		.loc 1 8 5 is_stmt 1
   8:src/Sem.cpp   ****     return s;
 312              		.loc 1 8 18 is_stmt 0
 313 0180 93050900 		mv	a1,s2
 314 0184 97000000 		call	_ZN3Sem10initializeEj
 314      E7800000 
 315              	.LVL31:
   9:src/Sem.cpp   **** }
 316              		.loc 1 9 5 is_stmt 1
  10:src/Sem.cpp   **** 
 317              		.loc 1 10 1 is_stmt 0
 318 018c 13850400 		mv	a0,s1
 319 0190 83308101 		ld	ra,24(sp)
 320              		.cfi_restore 1
 321 0194 03340101 		ld	s0,16(sp)
 322              		.cfi_restore 8
 323              		.cfi_def_cfa 2, 32
 324 0198 83348100 		ld	s1,8(sp)
 325              		.cfi_restore 9
 326              	.LVL32:
 327 019c 03390100 		ld	s2,0(sp)
 328              		.cfi_restore 18
 329 01a0 13010102 		addi	sp,sp,32
 330              		.cfi_def_cfa_offset 0
 331 01a4 67800000 		jr	ra
 332              		.cfi_endproc
 333              	.LFE12:
 335              		.align	2
 336              		.globl	_ZN3Sem13freeSemaphoreEPS_
 338              	_ZN3Sem13freeSemaphoreEPS_:
 339              	.LFB18:
  46:src/Sem.cpp   **** 
  47:src/Sem.cpp   **** void Sem::freeSemaphore(Sem *s) {
 340              		.loc 1 47 33 is_stmt 1
GAS LISTING /tmp/cciwm8I3.s 			page 9


 341              		.cfi_startproc
 342              	.LVL33:
 343 01a8 130101FE 		addi	sp,sp,-32
 344              		.cfi_def_cfa_offset 32
 345 01ac 233C1100 		sd	ra,24(sp)
 346 01b0 23388100 		sd	s0,16(sp)
 347 01b4 23349100 		sd	s1,8(sp)
 348              		.cfi_offset 1, -8
 349              		.cfi_offset 8, -16
 350              		.cfi_offset 9, -24
 351 01b8 13040102 		addi	s0,sp,32
 352              		.cfi_def_cfa 8, 0
 353 01bc 93040500 		mv	s1,a0
  48:src/Sem.cpp   ****     List::free(s->l);
 354              		.loc 1 48 5
 355              		.loc 1 48 15 is_stmt 0
 356 01c0 03358500 		ld	a0,8(a0)
 357              	.LVL34:
 358 01c4 97000000 		call	_ZN4List4freeEPS_@plt
 358      E7800000 
 359              	.LVL35:
  49:src/Sem.cpp   ****     MemoryAllocator::free(s);
 360              		.loc 1 49 5 is_stmt 1
 361              		.loc 1 49 26 is_stmt 0
 362 01cc 13850400 		mv	a0,s1
 363 01d0 97000000 		call	_ZN15MemoryAllocator4freeEPv@plt
 363      E7800000 
 364              	.LVL36:
  50:src/Sem.cpp   **** }
 365              		.loc 1 50 1
 366 01d8 83308101 		ld	ra,24(sp)
 367              		.cfi_restore 1
 368 01dc 03340101 		ld	s0,16(sp)
 369              		.cfi_restore 8
 370              		.cfi_def_cfa 2, 32
 371 01e0 83348100 		ld	s1,8(sp)
 372              		.cfi_restore 9
 373              	.LVL37:
 374 01e4 13010102 		addi	sp,sp,32
 375              		.cfi_def_cfa_offset 0
 376 01e8 67800000 		jr	ra
 377              		.cfi_endproc
 378              	.LFE18:
 380              	.Letext0:
 381              		.file 4 "src/../h/Sem.hpp"
 382              		.file 5 "src/../h/../lib/hw.h"
 383              		.file 6 "src/../h/MemoryAllocator.hpp"
 384              		.file 7 "src/../h/Scheduler.hpp"
GAS LISTING /tmp/cciwm8I3.s 			page 10

