GAS LISTING /tmp/ccwUsl3v.s 			page 1


   1              		.file	"TCB.cpp"
   2              		.option pic
   3              		.option norelax
   4              		.text
   5              	.Ltext0:
   6              		.align	2
   7              		.globl	_ZN3TCB7wrapperEv
   9              	_ZN3TCB7wrapperEv:
  10              	.LFB36:
  11              		.file 1 "src/TCB.cpp"
   1:src/TCB.cpp   **** #include "../h/TCB.hpp"
   2:src/TCB.cpp   **** #include "../h/Riscv.h"
   3:src/TCB.cpp   **** #include "../h/Scheduler.hpp"
   4:src/TCB.cpp   **** #include "../h/MemoryAllocator.hpp"
   5:src/TCB.cpp   **** #include "../h/syscall_c.hpp"
   6:src/TCB.cpp   **** #include "../h/Sleeping.hpp"
   7:src/TCB.cpp   **** #include "../h/ConsoleBuffer.hpp"
   8:src/TCB.cpp   **** #include "../test/buffer_CPP_API.hpp"
   9:src/TCB.cpp   **** TCB* TCB::running = nullptr;
  10:src/TCB.cpp   **** List* TCB::garbage = nullptr;
  11:src/TCB.cpp   **** uint64 TCB::timeSliceCounter = 0;
  12:src/TCB.cpp   **** bool TCB::fatalError = false;
  13:src/TCB.cpp   **** 
  14:src/TCB.cpp   **** void TCB::dispatch() {
  15:src/TCB.cpp   ****     TCB* old = running;
  16:src/TCB.cpp   ****     if(!old->isFinished() && old->isActive() && !old->isSleeping())
  17:src/TCB.cpp   ****         Scheduler::put(old);
  18:src/TCB.cpp   ****     running = Scheduler::get();
  19:src/TCB.cpp   ****     if(fatalError){
  20:src/TCB.cpp   ****         while (!running->supervised){
  21:src/TCB.cpp   ****             garbage->put(running);
  22:src/TCB.cpp   ****             running->finished = true;
  23:src/TCB.cpp   ****             running = Scheduler::get();
  24:src/TCB.cpp   ****         }
  25:src/TCB.cpp   ****     }
  26:src/TCB.cpp   ****     if(old->isFinished())
  27:src/TCB.cpp   ****         garbage->put(old);
  28:src/TCB.cpp   ****     if(!running)
  29:src/TCB.cpp   ****         return;
  30:src/TCB.cpp   ****     timeSliceCounter = 0;
  31:src/TCB.cpp   ****     contextSwitch(&old->context, &running->context);
  32:src/TCB.cpp   **** }
  33:src/TCB.cpp   **** 
  34:src/TCB.cpp   **** TCB *TCB::createThread(TCB::Body body, void* args, void* stack) {
  35:src/TCB.cpp   ****     TCB *t = (TCB*)MemoryAllocator::allocate(sizeof(TCB));
  36:src/TCB.cpp   ****     t->initialize(body, args, stack);
  37:src/TCB.cpp   ****     if(!garbage)
  38:src/TCB.cpp   ****         garbage = List::create();
  39:src/TCB.cpp   ****     return t;
  40:src/TCB.cpp   **** }
  41:src/TCB.cpp   **** 
  42:src/TCB.cpp   **** void TCB::initialize(TCB::Body body, void *args, void* stack) {
  43:src/TCB.cpp   ****     this->body = body;
  44:src/TCB.cpp   ****     this->args = args;
  45:src/TCB.cpp   ****     this->timeSlice = DEFAULT_TIME_SLICE;
  46:src/TCB.cpp   ****     this->finished = false;
  47:src/TCB.cpp   ****     this->active = true;
GAS LISTING /tmp/ccwUsl3v.s 			page 2


  48:src/TCB.cpp   ****     this->sleeping = false;
  49:src/TCB.cpp   ****     this->supervised = false;
  50:src/TCB.cpp   ****     this->stack = (uint64*)stack;
  51:src/TCB.cpp   ****     context.ra = body != nullptr ? (uint64)&wrapper : 0;
  52:src/TCB.cpp   ****     context.sp = this->stack != nullptr ? (uint64)(this->stack + DEFAULT_STACK_SIZE) : 0;
  53:src/TCB.cpp   ****     if(body != nullptr)
  54:src/TCB.cpp   ****         Scheduler::put(this);
  55:src/TCB.cpp   **** }
  56:src/TCB.cpp   **** 
  57:src/TCB.cpp   **** void TCB::wrapper() {
  12              		.loc 1 57 21
  13              		.cfi_startproc
  14 0000 130101FE 		addi	sp,sp,-32
  15              		.cfi_def_cfa_offset 32
  16 0004 233C1100 		sd	ra,24(sp)
  17 0008 23388100 		sd	s0,16(sp)
  18 000c 23349100 		sd	s1,8(sp)
  19              		.cfi_offset 1, -8
  20              		.cfi_offset 8, -16
  21              		.cfi_offset 9, -24
  22 0010 13040102 		addi	s0,sp,32
  23              		.cfi_def_cfa 8, 0
  58:src/TCB.cpp   ****     if(!running->supervised)
  24              		.loc 1 58 5
  25              		.loc 1 58 18 is_stmt 0
  26 0014 97070000 		ld	a5,.LANCHOR0
  26      83B70700 
  27 001c 83C79703 		lbu	a5,57(a5)
  28              		.loc 1 58 5
  29 0020 63860704 		beqz	a5,.L4
  30              	.L2:
  59:src/TCB.cpp   ****         Riscv::popSppSpie();
  60:src/TCB.cpp   ****     running->body(running->args);
  31              		.loc 1 60 5 is_stmt 1
  32              		.loc 1 60 14 is_stmt 0
  33 0024 97040000 		lla	s1,.LANCHOR0
  33      93840400 
  34 002c 83B70400 		ld	a5,0(s1)
  35 0030 03B70700 		ld	a4,0(a5)
  36              		.loc 1 60 18
  37 0034 03B58700 		ld	a0,8(a5)
  38 0038 E7000700 		jalr	a4
  39              	.LVL0:
  61:src/TCB.cpp   ****     running->setFinished(true);
  40              		.loc 1 61 5 is_stmt 1
  41              		.loc 1 61 25 is_stmt 0
  42 003c 03B50400 		ld	a0,0(s1)
  43              	.LVL1:
  44              	.LBB19:
  45              	.LBB20:
  46              		.file 2 "src/../h/TCB.hpp"
   1:src/../h/TCB.hpp **** 
   2:src/../h/TCB.hpp **** #ifndef PROJECT_BASE_V1_1_TCB_HPP
   3:src/../h/TCB.hpp **** #define PROJECT_BASE_V1_1_TCB_HPP
   4:src/../h/TCB.hpp **** #include "../lib/hw.h"
   5:src/../h/TCB.hpp **** #include "../h/List.hpp"
   6:src/../h/TCB.hpp **** 
GAS LISTING /tmp/ccwUsl3v.s 			page 3


   7:src/../h/TCB.hpp **** class TCB{
   8:src/../h/TCB.hpp **** 
   9:src/../h/TCB.hpp **** public:
  10:src/../h/TCB.hpp ****     using Body = void(*)(void*);
  11:src/../h/TCB.hpp **** 
  12:src/../h/TCB.hpp ****     bool isFinished() const { return finished; }
  13:src/../h/TCB.hpp **** 
  14:src/../h/TCB.hpp ****     void setFinished(bool finished) { this->finished = finished; }
  47              		.loc 2 14 39 is_stmt 1
  48              		.loc 2 14 54 is_stmt 0
  49 0040 93071000 		li	a5,1
  50 0044 2304F502 		sb	a5,40(a0)
  51              	.LVL2:
  52              	.LBE20:
  53              	.LBE19:
  62:src/TCB.cpp   ****     Sleeping::awake(running);
  54              		.loc 1 62 5 is_stmt 1
  55              		.loc 1 62 20 is_stmt 0
  56 0048 97000000 		call	_ZN8Sleeping5awakeEP3TCB@plt
  56      E7800000 
  57              	.LVL3:
  63:src/TCB.cpp   ****     thread_dispatch();
  58              		.loc 1 63 5 is_stmt 1
  59              		.loc 1 63 20 is_stmt 0
  60 0050 97000000 		call	_Z15thread_dispatchv@plt
  60      E7800000 
  61              	.LVL4:
  64:src/TCB.cpp   **** }
  62              		.loc 1 64 1
  63 0058 83308101 		ld	ra,24(sp)
  64              		.cfi_remember_state
  65              		.cfi_restore 1
  66 005c 03340101 		ld	s0,16(sp)
  67              		.cfi_restore 8
  68              		.cfi_def_cfa 2, 32
  69 0060 83348100 		ld	s1,8(sp)
  70              		.cfi_restore 9
  71 0064 13010102 		addi	sp,sp,32
  72              		.cfi_def_cfa_offset 0
  73 0068 67800000 		jr	ra
  74              	.L4:
  75              		.cfi_restore_state
  59:src/TCB.cpp   ****     running->body(running->args);
  76              		.loc 1 59 9 is_stmt 1
  59:src/TCB.cpp   ****     running->body(running->args);
  77              		.loc 1 59 26 is_stmt 0
  78 006c 97000000 		call	_ZN5Riscv10popSppSpieEv@plt
  78      E7800000 
  79              	.LVL5:
  80 0074 6FF01FFB 		j	.L2
  81              		.cfi_endproc
  82              	.LFE36:
  84              		.align	2
  85              		.globl	_ZN3TCB8dispatchEv
  87              	_ZN3TCB8dispatchEv:
  88              	.LFB33:
  14:src/TCB.cpp   ****     TCB* old = running;
GAS LISTING /tmp/ccwUsl3v.s 			page 4


  89              		.loc 1 14 22 is_stmt 1
  90              		.cfi_startproc
  91 0078 130101FE 		addi	sp,sp,-32
  92              		.cfi_def_cfa_offset 32
  93 007c 233C1100 		sd	ra,24(sp)
  94 0080 23388100 		sd	s0,16(sp)
  95 0084 23349100 		sd	s1,8(sp)
  96 0088 23302101 		sd	s2,0(sp)
  97              		.cfi_offset 1, -8
  98              		.cfi_offset 8, -16
  99              		.cfi_offset 9, -24
 100              		.cfi_offset 18, -32
 101 008c 13040102 		addi	s0,sp,32
 102              		.cfi_def_cfa 8, 0
  15:src/TCB.cpp   ****     if(!old->isFinished() && old->isActive() && !old->isSleeping())
 103              		.loc 1 15 5
  15:src/TCB.cpp   ****     if(!old->isFinished() && old->isActive() && !old->isSleeping())
 104              		.loc 1 15 10 is_stmt 0
 105 0090 17090000 		ld	s2,.LANCHOR0
 105      03390900 
 106              	.LVL6:
  16:src/TCB.cpp   ****         Scheduler::put(old);
 107              		.loc 1 16 5 is_stmt 1
 108              	.LBB21:
 109              	.LBB22:
  12:src/../h/TCB.hpp **** 
 110              		.loc 2 12 31
  12:src/../h/TCB.hpp **** 
 111              		.loc 2 12 38 is_stmt 0
 112 0098 83478902 		lbu	a5,40(s2)
 113              	.LVL7:
 114              	.LBE22:
 115              	.LBE21:
  16:src/TCB.cpp   ****         Scheduler::put(old);
 116              		.loc 1 16 46
 117 009c 639A0700 		bnez	a5,.L6
 118              	.LVL8:
 119              	.LBB23:
 120              	.LBB24:
  15:src/../h/TCB.hpp **** 
  16:src/../h/TCB.hpp ****     void setSleeping(bool sleeping) { this->sleeping = sleeping; }
  17:src/../h/TCB.hpp **** 
  18:src/../h/TCB.hpp ****     bool isSleeping() const { return sleeping; }
  19:src/../h/TCB.hpp **** 
  20:src/../h/TCB.hpp ****     bool isActive() const { return active; }
 121              		.loc 2 20 29 is_stmt 1
 122              		.loc 2 20 36 is_stmt 0
 123 00a0 83479902 		lbu	a5,41(s2)
 124              	.LVL9:
 125              	.LBE24:
 126              	.LBE23:
  16:src/TCB.cpp   ****         Scheduler::put(old);
 127              		.loc 1 16 27
 128 00a4 63860700 		beqz	a5,.L6
 129              	.LVL10:
 130              	.LBB25:
 131              	.LBB26:
GAS LISTING /tmp/ccwUsl3v.s 			page 5


  18:src/../h/TCB.hpp **** 
 132              		.loc 2 18 31 is_stmt 1
  18:src/../h/TCB.hpp **** 
 133              		.loc 2 18 38 is_stmt 0
 134 00a8 83478903 		lbu	a5,56(s2)
 135              	.LVL11:
 136              	.LBE26:
 137              	.LBE25:
  16:src/TCB.cpp   ****         Scheduler::put(old);
 138              		.loc 1 16 46
 139 00ac 63800706 		beqz	a5,.L12
 140              	.L6:
  18:src/TCB.cpp   ****     if(fatalError){
 141              		.loc 1 18 5 is_stmt 1
  18:src/TCB.cpp   ****     if(fatalError){
 142              		.loc 1 18 29 is_stmt 0
 143 00b0 97000000 		call	_ZN9Scheduler3getEv@plt
 143      E7800000 
 144              	.LVL12:
  18:src/TCB.cpp   ****     if(fatalError){
 145              		.loc 1 18 13
 146 00b8 97070000 		lla	a5,.LANCHOR0
 146      93870700 
 147 00c0 23B0A700 		sd	a0,0(a5)
  19:src/TCB.cpp   ****         while (!running->supervised){
 148              		.loc 1 19 5 is_stmt 1
 149 00c4 83C78700 		lbu	a5,8(a5)
 150 00c8 638A0704 		beqz	a5,.L7
 151              	.L8:
  20:src/TCB.cpp   ****             garbage->put(running);
 152              		.loc 1 20 9
  20:src/TCB.cpp   ****             garbage->put(running);
 153              		.loc 1 20 16
  20:src/TCB.cpp   ****             garbage->put(running);
 154              		.loc 1 20 26 is_stmt 0
 155 00cc 97050000 		ld	a1,.LANCHOR0
 155      83B50500 
 156 00d4 83C79503 		lbu	a5,57(a1)
  20:src/TCB.cpp   ****             garbage->put(running);
 157              		.loc 1 20 16
 158 00d8 63920704 		bnez	a5,.L7
  21:src/TCB.cpp   ****             running->finished = true;
 159              		.loc 1 21 13 is_stmt 1
  21:src/TCB.cpp   ****             running->finished = true;
 160              		.loc 1 21 25 is_stmt 0
 161 00dc 97040000 		lla	s1,.LANCHOR0
 161      93840400 
 162 00e4 03B50401 		ld	a0,16(s1)
 163 00e8 97000000 		call	_ZN4List3putEP3TCB@plt
 163      E7800000 
 164              	.LVL13:
  22:src/TCB.cpp   ****             running = Scheduler::get();
 165              		.loc 1 22 13 is_stmt 1
  22:src/TCB.cpp   ****             running = Scheduler::get();
 166              		.loc 1 22 22 is_stmt 0
 167 00f0 83B70400 		ld	a5,0(s1)
  22:src/TCB.cpp   ****             running = Scheduler::get();
GAS LISTING /tmp/ccwUsl3v.s 			page 6


 168              		.loc 1 22 31
 169 00f4 13071000 		li	a4,1
 170 00f8 2384E702 		sb	a4,40(a5)
  23:src/TCB.cpp   ****         }
 171              		.loc 1 23 13 is_stmt 1
  23:src/TCB.cpp   ****         }
 172              		.loc 1 23 37 is_stmt 0
 173 00fc 97000000 		call	_ZN9Scheduler3getEv@plt
 173      E7800000 
 174              	.LVL14:
  23:src/TCB.cpp   ****         }
 175              		.loc 1 23 21
 176 0104 23B0A400 		sd	a0,0(s1)
  20:src/TCB.cpp   ****             garbage->put(running);
 177              		.loc 1 20 9
 178 0108 6FF05FFC 		j	.L8
 179              	.L12:
  17:src/TCB.cpp   ****     running = Scheduler::get();
 180              		.loc 1 17 9 is_stmt 1
  17:src/TCB.cpp   ****     running = Scheduler::get();
 181              		.loc 1 17 23 is_stmt 0
 182 010c 13050900 		mv	a0,s2
 183 0110 97000000 		call	_ZN9Scheduler3putEP3TCB@plt
 183      E7800000 
 184              	.LVL15:
 185 0118 6FF09FF9 		j	.L6
 186              	.L7:
  26:src/TCB.cpp   ****         garbage->put(old);
 187              		.loc 1 26 5 is_stmt 1
 188              	.LVL16:
 189              	.LBB27:
 190              	.LBB28:
  12:src/../h/TCB.hpp **** 
 191              		.loc 2 12 31
  12:src/../h/TCB.hpp **** 
 192              		.loc 2 12 38 is_stmt 0
 193 011c 83478902 		lbu	a5,40(s2)
 194              	.LVL17:
 195              	.LBE28:
 196              	.LBE27:
  26:src/TCB.cpp   ****         garbage->put(old);
 197              		.loc 1 26 5
 198 0120 63900704 		bnez	a5,.L13
 199              	.L9:
  28:src/TCB.cpp   ****         return;
 200              		.loc 1 28 5 is_stmt 1
  28:src/TCB.cpp   ****         return;
 201              		.loc 1 28 8 is_stmt 0
 202 0124 97050000 		ld	a1,.LANCHOR0
 202      83B50500 
  28:src/TCB.cpp   ****         return;
 203              		.loc 1 28 5
 204 012c 638E0500 		beqz	a1,.L5
  30:src/TCB.cpp   ****     contextSwitch(&old->context, &running->context);
 205              		.loc 1 30 5 is_stmt 1
  30:src/TCB.cpp   ****     contextSwitch(&old->context, &running->context);
 206              		.loc 1 30 22 is_stmt 0
GAS LISTING /tmp/ccwUsl3v.s 			page 7


 207 0130 97070000 		sd	zero,.LANCHOR0+24,a5
 207      23B00700 
  31:src/TCB.cpp   **** }
 208              		.loc 1 31 5 is_stmt 1
  31:src/TCB.cpp   **** }
 209              		.loc 1 31 18 is_stmt 0
 210 0138 93858501 		addi	a1,a1,24
 211 013c 13058901 		addi	a0,s2,24
 212 0140 97000000 		call	_ZN3TCB13contextSwitchEPNS_7ContextES1_@plt
 212      E7800000 
 213              	.LVL18:
 214              	.L5:
  32:src/TCB.cpp   **** 
 215              		.loc 1 32 1
 216 0148 83308101 		ld	ra,24(sp)
 217              		.cfi_remember_state
 218              		.cfi_restore 1
 219 014c 03340101 		ld	s0,16(sp)
 220              		.cfi_restore 8
 221              		.cfi_def_cfa 2, 32
 222 0150 83348100 		ld	s1,8(sp)
 223              		.cfi_restore 9
 224 0154 03390100 		ld	s2,0(sp)
 225              		.cfi_restore 18
 226              	.LVL19:
 227 0158 13010102 		addi	sp,sp,32
 228              		.cfi_def_cfa_offset 0
 229 015c 67800000 		jr	ra
 230              	.LVL20:
 231              	.L13:
 232              		.cfi_restore_state
  27:src/TCB.cpp   ****     if(!running)
 233              		.loc 1 27 9 is_stmt 1
  27:src/TCB.cpp   ****     if(!running)
 234              		.loc 1 27 21 is_stmt 0
 235 0160 93050900 		mv	a1,s2
 236 0164 17050000 		ld	a0,.LANCHOR0+16
 236      03350500 
 237 016c 97000000 		call	_ZN4List3putEP3TCB@plt
 237      E7800000 
 238              	.LVL21:
 239 0174 6FF01FFB 		j	.L9
 240              		.cfi_endproc
 241              	.LFE33:
 243              		.align	2
 244              		.globl	_ZN3TCB10initializeEPFvPvES0_S0_
 246              	_ZN3TCB10initializeEPFvPvES0_S0_:
 247              	.LFB35:
  42:src/TCB.cpp   ****     this->body = body;
 248              		.loc 1 42 63 is_stmt 1
 249              		.cfi_startproc
 250              	.LVL22:
  43:src/TCB.cpp   ****     this->args = args;
 251              		.loc 1 43 5
  43:src/TCB.cpp   ****     this->args = args;
 252              		.loc 1 43 16 is_stmt 0
 253 0178 2330B500 		sd	a1,0(a0)
GAS LISTING /tmp/ccwUsl3v.s 			page 8


  44:src/TCB.cpp   ****     this->timeSlice = DEFAULT_TIME_SLICE;
 254              		.loc 1 44 5 is_stmt 1
  44:src/TCB.cpp   ****     this->timeSlice = DEFAULT_TIME_SLICE;
 255              		.loc 1 44 16 is_stmt 0
 256 017c 2334C500 		sd	a2,8(a0)
  45:src/TCB.cpp   ****     this->finished = false;
 257              		.loc 1 45 5 is_stmt 1
  45:src/TCB.cpp   ****     this->finished = false;
 258              		.loc 1 45 21 is_stmt 0
 259 0180 93072000 		li	a5,2
 260 0184 2338F502 		sd	a5,48(a0)
  46:src/TCB.cpp   ****     this->active = true;
 261              		.loc 1 46 5 is_stmt 1
  46:src/TCB.cpp   ****     this->active = true;
 262              		.loc 1 46 20 is_stmt 0
 263 0188 23040502 		sb	zero,40(a0)
  47:src/TCB.cpp   ****     this->sleeping = false;
 264              		.loc 1 47 5 is_stmt 1
  47:src/TCB.cpp   ****     this->sleeping = false;
 265              		.loc 1 47 18 is_stmt 0
 266 018c 93071000 		li	a5,1
 267 0190 A304F502 		sb	a5,41(a0)
  48:src/TCB.cpp   ****     this->supervised = false;
 268              		.loc 1 48 5 is_stmt 1
  48:src/TCB.cpp   ****     this->supervised = false;
 269              		.loc 1 48 20 is_stmt 0
 270 0194 230C0502 		sb	zero,56(a0)
  49:src/TCB.cpp   ****     this->stack = (uint64*)stack;
 271              		.loc 1 49 5 is_stmt 1
  49:src/TCB.cpp   ****     this->stack = (uint64*)stack;
 272              		.loc 1 49 22 is_stmt 0
 273 0198 A30C0502 		sb	zero,57(a0)
  50:src/TCB.cpp   ****     context.ra = body != nullptr ? (uint64)&wrapper : 0;
 274              		.loc 1 50 5 is_stmt 1
  50:src/TCB.cpp   ****     context.ra = body != nullptr ? (uint64)&wrapper : 0;
 275              		.loc 1 50 17 is_stmt 0
 276 019c 2338D500 		sd	a3,16(a0)
  51:src/TCB.cpp   ****     context.sp = this->stack != nullptr ? (uint64)(this->stack + DEFAULT_STACK_SIZE) : 0;
 277              		.loc 1 51 5 is_stmt 1
  51:src/TCB.cpp   ****     context.sp = this->stack != nullptr ? (uint64)(this->stack + DEFAULT_STACK_SIZE) : 0;
 278              		.loc 1 51 34 is_stmt 0
 279 01a0 63860504 		beqz	a1,.L18
  51:src/TCB.cpp   ****     context.sp = this->stack != nullptr ? (uint64)(this->stack + DEFAULT_STACK_SIZE) : 0;
 280              		.loc 1 51 34 discriminator 1
 281 01a4 97070000 		lla	a5,_ZN3TCB7wrapperEv
 281      93870700 
 282              	.L15:
  51:src/TCB.cpp   ****     context.sp = this->stack != nullptr ? (uint64)(this->stack + DEFAULT_STACK_SIZE) : 0;
 283              		.loc 1 51 16 discriminator 4
 284 01ac 233CF500 		sd	a5,24(a0)
  52:src/TCB.cpp   ****     if(body != nullptr)
 285              		.loc 1 52 5 is_stmt 1 discriminator 4
  52:src/TCB.cpp   ****     if(body != nullptr)
 286              		.loc 1 52 41 is_stmt 0 discriminator 4
 287 01b0 63820604 		beqz	a3,.L19
  52:src/TCB.cpp   ****     if(body != nullptr)
 288              		.loc 1 52 64 discriminator 1
GAS LISTING /tmp/ccwUsl3v.s 			page 9


 289 01b4 B7870000 		li	a5,32768
 290 01b8 B386F600 		add	a3,a3,a5
 291              	.LVL23:
 292              	.L16:
  52:src/TCB.cpp   ****     if(body != nullptr)
 293              		.loc 1 52 16 discriminator 4
 294 01bc 2330D502 		sd	a3,32(a0)
  53:src/TCB.cpp   ****         Scheduler::put(this);
 295              		.loc 1 53 5 is_stmt 1 discriminator 4
 296 01c0 638E0502 		beqz	a1,.L21
  42:src/TCB.cpp   ****     this->body = body;
 297              		.loc 1 42 63 is_stmt 0
 298 01c4 130101FF 		addi	sp,sp,-16
 299              		.cfi_def_cfa_offset 16
 300 01c8 23341100 		sd	ra,8(sp)
 301              	.LVL24:
 302 01cc 23308100 		sd	s0,0(sp)
 303              		.cfi_offset 1, -8
 304              		.cfi_offset 8, -16
 305 01d0 13040101 		addi	s0,sp,16
 306              		.cfi_def_cfa 8, 0
  54:src/TCB.cpp   **** }
 307              		.loc 1 54 9 is_stmt 1
  54:src/TCB.cpp   **** }
 308              		.loc 1 54 23 is_stmt 0
 309 01d4 97000000 		call	_ZN9Scheduler3putEP3TCB@plt
 309      E7800000 
 310              	.LVL25:
  55:src/TCB.cpp   **** 
 311              		.loc 1 55 1
 312 01dc 83308100 		ld	ra,8(sp)
 313              		.cfi_restore 1
 314 01e0 03340100 		ld	s0,0(sp)
 315              		.cfi_restore 8
 316              		.cfi_def_cfa 2, 16
 317 01e4 13010101 		addi	sp,sp,16
 318              		.cfi_def_cfa_offset 0
 319 01e8 67800000 		jr	ra
 320              	.LVL26:
 321              	.L18:
  51:src/TCB.cpp   ****     context.sp = this->stack != nullptr ? (uint64)(this->stack + DEFAULT_STACK_SIZE) : 0;
 322              		.loc 1 51 34
 323 01ec 93070000 		li	a5,0
 324 01f0 6FF0DFFB 		j	.L15
 325              	.L19:
  52:src/TCB.cpp   ****     if(body != nullptr)
 326              		.loc 1 52 41
 327 01f4 93060000 		li	a3,0
 328              	.LVL27:
 329 01f8 6FF05FFC 		j	.L16
 330              	.L21:
 331 01fc 67800000 		ret
 332              		.cfi_endproc
 333              	.LFE35:
 335              		.align	2
 336              		.globl	_ZN3TCB12createThreadEPFvPvES0_S0_
 338              	_ZN3TCB12createThreadEPFvPvES0_S0_:
GAS LISTING /tmp/ccwUsl3v.s 			page 10


 339              	.LFB34:
  34:src/TCB.cpp   ****     TCB *t = (TCB*)MemoryAllocator::allocate(sizeof(TCB));
 340              		.loc 1 34 65 is_stmt 1
 341              		.cfi_startproc
 342              	.LVL28:
 343 0200 130101FD 		addi	sp,sp,-48
 344              		.cfi_def_cfa_offset 48
 345 0204 23341102 		sd	ra,40(sp)
 346 0208 23308102 		sd	s0,32(sp)
 347 020c 233C9100 		sd	s1,24(sp)
 348 0210 23382101 		sd	s2,16(sp)
 349 0214 23343101 		sd	s3,8(sp)
 350 0218 23304101 		sd	s4,0(sp)
 351              		.cfi_offset 1, -8
 352              		.cfi_offset 8, -16
 353              		.cfi_offset 9, -24
 354              		.cfi_offset 18, -32
 355              		.cfi_offset 19, -40
 356              		.cfi_offset 20, -48
 357 021c 13040103 		addi	s0,sp,48
 358              		.cfi_def_cfa 8, 0
 359 0220 13090500 		mv	s2,a0
 360 0224 93890500 		mv	s3,a1
 361 0228 130A0600 		mv	s4,a2
  35:src/TCB.cpp   ****     t->initialize(body, args, stack);
 362              		.loc 1 35 5
  35:src/TCB.cpp   ****     t->initialize(body, args, stack);
 363              		.loc 1 35 45 is_stmt 0
 364 022c 13050004 		li	a0,64
 365              	.LVL29:
 366 0230 97000000 		call	_ZN15MemoryAllocator8allocateEm@plt
 366      E7800000 
 367              	.LVL30:
 368 0238 93040500 		mv	s1,a0
 369              	.LVL31:
  36:src/TCB.cpp   ****     if(!garbage)
 370              		.loc 1 36 5 is_stmt 1
  36:src/TCB.cpp   ****     if(!garbage)
 371              		.loc 1 36 18 is_stmt 0
 372 023c 93060A00 		mv	a3,s4
 373 0240 13860900 		mv	a2,s3
 374 0244 93050900 		mv	a1,s2
 375 0248 97000000 		call	_ZN3TCB10initializeEPFvPvES0_S0_
 375      E7800000 
 376              	.LVL32:
  37:src/TCB.cpp   ****         garbage = List::create();
 377              		.loc 1 37 5 is_stmt 1
  37:src/TCB.cpp   ****         garbage = List::create();
 378              		.loc 1 37 8 is_stmt 0
 379 0250 97070000 		ld	a5,.LANCHOR0+16
 379      83B70700 
  37:src/TCB.cpp   ****         garbage = List::create();
 380              		.loc 1 37 5
 381 0258 63840702 		beqz	a5,.L27
 382              	.L24:
  40:src/TCB.cpp   **** 
 383              		.loc 1 40 1
GAS LISTING /tmp/ccwUsl3v.s 			page 11


 384 025c 13850400 		mv	a0,s1
 385 0260 83308102 		ld	ra,40(sp)
 386              		.cfi_remember_state
 387              		.cfi_restore 1
 388 0264 03340102 		ld	s0,32(sp)
 389              		.cfi_restore 8
 390              		.cfi_def_cfa 2, 48
 391 0268 83348101 		ld	s1,24(sp)
 392              		.cfi_restore 9
 393              	.LVL33:
 394 026c 03390101 		ld	s2,16(sp)
 395              		.cfi_restore 18
 396              	.LVL34:
 397 0270 83398100 		ld	s3,8(sp)
 398              		.cfi_restore 19
 399              	.LVL35:
 400 0274 033A0100 		ld	s4,0(sp)
 401              		.cfi_restore 20
 402              	.LVL36:
 403 0278 13010103 		addi	sp,sp,48
 404              		.cfi_def_cfa_offset 0
 405 027c 67800000 		jr	ra
 406              	.LVL37:
 407              	.L27:
 408              		.cfi_restore_state
  38:src/TCB.cpp   ****     return t;
 409              		.loc 1 38 9 is_stmt 1
  38:src/TCB.cpp   ****     return t;
 410              		.loc 1 38 31 is_stmt 0
 411 0280 97000000 		call	_ZN4List6createEv@plt
 411      E7800000 
 412              	.LVL38:
  38:src/TCB.cpp   ****     return t;
 413              		.loc 1 38 17
 414 0288 97070000 		sd	a0,.LANCHOR0+16,a5
 414      23B0A700 
  39:src/TCB.cpp   **** }
 415              		.loc 1 39 5 is_stmt 1
  39:src/TCB.cpp   **** }
 416              		.loc 1 39 12 is_stmt 0
 417 0290 6FF0DFFC 		j	.L24
 418              		.cfi_endproc
 419              	.LFE34:
 421              		.align	2
 422              		.globl	_ZN3TCB10freeThreadEPS_
 424              	_ZN3TCB10freeThreadEPS_:
 425              	.LFB37:
  65:src/TCB.cpp   **** 
  66:src/TCB.cpp   **** void TCB::freeThread(TCB *t) {
 426              		.loc 1 66 30 is_stmt 1
 427              		.cfi_startproc
 428              	.LVL39:
 429 0294 130101FE 		addi	sp,sp,-32
 430              		.cfi_def_cfa_offset 32
 431 0298 233C1100 		sd	ra,24(sp)
 432 029c 23388100 		sd	s0,16(sp)
 433 02a0 23349100 		sd	s1,8(sp)
GAS LISTING /tmp/ccwUsl3v.s 			page 12


 434              		.cfi_offset 1, -8
 435              		.cfi_offset 8, -16
 436              		.cfi_offset 9, -24
 437 02a4 13040102 		addi	s0,sp,32
 438              		.cfi_def_cfa 8, 0
 439 02a8 93040500 		mv	s1,a0
  67:src/TCB.cpp   ****     if(t == running)
 440              		.loc 1 67 5
 441              		.loc 1 67 10 is_stmt 0
 442 02ac 97070000 		ld	a5,.LANCHOR0
 442      83B70700 
 443              		.loc 1 67 5
 444 02b4 6388A702 		beq	a5,a0,.L31
 445              	.L29:
  68:src/TCB.cpp   ****         running = nullptr;
  69:src/TCB.cpp   ****     MemoryAllocator::free(t->stack);
 446              		.loc 1 69 5 is_stmt 1
 447              		.loc 1 69 26 is_stmt 0
 448 02b8 03B50401 		ld	a0,16(s1)
 449              	.LVL40:
 450 02bc 97000000 		call	_ZN15MemoryAllocator4freeEPv@plt
 450      E7800000 
 451              	.LVL41:
  70:src/TCB.cpp   ****     MemoryAllocator::free(t);
 452              		.loc 1 70 5 is_stmt 1
 453              		.loc 1 70 26 is_stmt 0
 454 02c4 13850400 		mv	a0,s1
 455 02c8 97000000 		call	_ZN15MemoryAllocator4freeEPv@plt
 455      E7800000 
 456              	.LVL42:
  71:src/TCB.cpp   **** }
 457              		.loc 1 71 1
 458 02d0 83308101 		ld	ra,24(sp)
 459              		.cfi_remember_state
 460              		.cfi_restore 1
 461 02d4 03340101 		ld	s0,16(sp)
 462              		.cfi_restore 8
 463              		.cfi_def_cfa 2, 32
 464 02d8 83348100 		ld	s1,8(sp)
 465              		.cfi_restore 9
 466              	.LVL43:
 467 02dc 13010102 		addi	sp,sp,32
 468              		.cfi_def_cfa_offset 0
 469 02e0 67800000 		jr	ra
 470              	.LVL44:
 471              	.L31:
 472              		.cfi_restore_state
  68:src/TCB.cpp   ****         running = nullptr;
 473              		.loc 1 68 9 is_stmt 1
  68:src/TCB.cpp   ****         running = nullptr;
 474              		.loc 1 68 17 is_stmt 0
 475 02e4 97070000 		sd	zero,.LANCHOR0,a5
 475      23B00700 
 476 02ec 6FF0DFFC 		j	.L29
 477              		.cfi_endproc
 478              	.LFE37:
 480              		.align	2
GAS LISTING /tmp/ccwUsl3v.s 			page 13


 481              		.globl	_ZN3TCB5sleepEmPS_
 483              	_ZN3TCB5sleepEmPS_:
 484              	.LFB38:
  72:src/TCB.cpp   **** 
  73:src/TCB.cpp   **** void TCB::sleep(time_t time, TCB* t) {
 485              		.loc 1 73 38 is_stmt 1
 486              		.cfi_startproc
 487              	.LVL45:
 488 02f0 130101FF 		addi	sp,sp,-16
 489              		.cfi_def_cfa_offset 16
 490 02f4 23341100 		sd	ra,8(sp)
 491 02f8 23308100 		sd	s0,0(sp)
 492              		.cfi_offset 1, -8
 493              		.cfi_offset 8, -16
 494 02fc 13040101 		addi	s0,sp,16
 495              		.cfi_def_cfa 8, 0
 496 0300 13860500 		mv	a2,a1
  74:src/TCB.cpp   ****     running->setSleeping(true);
 497              		.loc 1 74 5
 498              		.loc 1 74 25 is_stmt 0
 499 0304 97070000 		ld	a5,.LANCHOR0
 499      83B70700 
 500              	.LVL46:
 501              	.LBB29:
 502              	.LBB30:
  16:src/../h/TCB.hpp **** 
 503              		.loc 2 16 39 is_stmt 1
  16:src/../h/TCB.hpp **** 
 504              		.loc 2 16 54 is_stmt 0
 505 030c 13071000 		li	a4,1
 506 0310 238CE702 		sb	a4,56(a5)
 507              	.LVL47:
 508              	.LBE30:
 509              	.LBE29:
  75:src/TCB.cpp   ****     Sleeping::put(running, time, t);
 510              		.loc 1 75 5 is_stmt 1
 511              		.loc 1 75 18 is_stmt 0
 512 0314 93050500 		mv	a1,a0
 513              	.LVL48:
 514 0318 13850700 		mv	a0,a5
 515              	.LVL49:
 516 031c 97000000 		call	_ZN8Sleeping3putEP3TCBmS1_@plt
 516      E7800000 
 517              	.LVL50:
  76:src/TCB.cpp   ****     TCB::dispatch();
 518              		.loc 1 76 5 is_stmt 1
 519              		.loc 1 76 18 is_stmt 0
 520 0324 97000000 		call	_ZN3TCB8dispatchEv
 520      E7800000 
 521              	.LVL51:
  77:src/TCB.cpp   **** }
 522              		.loc 1 77 1
 523 032c 83308100 		ld	ra,8(sp)
 524              		.cfi_restore 1
 525 0330 03340100 		ld	s0,0(sp)
 526              		.cfi_restore 8
 527              		.cfi_def_cfa 2, 16
GAS LISTING /tmp/ccwUsl3v.s 			page 14


 528 0334 13010101 		addi	sp,sp,16
 529              		.cfi_def_cfa_offset 0
 530 0338 67800000 		jr	ra
 531              		.cfi_endproc
 532              	.LFE38:
 534              		.align	2
 535              		.globl	_ZN3TCB11freeGarbageEv
 537              	_ZN3TCB11freeGarbageEv:
 538              	.LFB39:
  78:src/TCB.cpp   **** 
  79:src/TCB.cpp   **** void TCB::freeGarbage() {
 539              		.loc 1 79 25 is_stmt 1
 540              		.cfi_startproc
 541 033c 130101FF 		addi	sp,sp,-16
 542              		.cfi_def_cfa_offset 16
 543 0340 23341100 		sd	ra,8(sp)
 544 0344 23308100 		sd	s0,0(sp)
 545              		.cfi_offset 1, -8
 546              		.cfi_offset 8, -16
 547 0348 13040101 		addi	s0,sp,16
 548              		.cfi_def_cfa 8, 0
 549              	.L36:
  80:src/TCB.cpp   ****     while(!TCB::garbage->empty()){
 550              		.loc 1 80 5
 551              		.loc 1 80 11
 552              		.loc 1 80 31 is_stmt 0
 553 034c 17050000 		ld	a0,.LANCHOR0+16
 553      03350500 
 554              	.LVL52:
 555              	.LBB31:
 556              	.LBB32:
 557              		.file 3 "src/../h/../h/List.hpp"
   1:src/../h/../h/List.hpp **** 
   2:src/../h/../h/List.hpp **** #ifndef PROJECT_BASE_V1_1_LIST_HPP
   3:src/../h/../h/List.hpp **** #define PROJECT_BASE_V1_1_LIST_HPP
   4:src/../h/../h/List.hpp **** 
   5:src/../h/../h/List.hpp **** class TCB;
   6:src/../h/../h/List.hpp **** 
   7:src/../h/../h/List.hpp **** class List{
   8:src/../h/../h/List.hpp **** 
   9:src/../h/../h/List.hpp **** public:
  10:src/../h/../h/List.hpp **** 
  11:src/../h/../h/List.hpp ****     static List* create();
  12:src/../h/../h/List.hpp **** 
  13:src/../h/../h/List.hpp ****     void put(TCB* thread);
  14:src/../h/../h/List.hpp **** 
  15:src/../h/../h/List.hpp ****     TCB* get();
  16:src/../h/../h/List.hpp **** 
  17:src/../h/../h/List.hpp ****     bool empty() { return head == nullptr; }
 558              		.loc 3 17 20 is_stmt 1
 559              		.loc 3 17 27 is_stmt 0
 560 0354 83370500 		ld	a5,0(a0)
 561              	.LVL53:
 562              	.LBE32:
 563              	.LBE31:
 564              		.loc 1 80 11
 565 0358 638C0700 		beqz	a5,.L35
GAS LISTING /tmp/ccwUsl3v.s 			page 15


 566              	.LBB33:
  81:src/TCB.cpp   ****         TCB* t = TCB::garbage->get();
 567              		.loc 1 81 9 is_stmt 1
 568              		.loc 1 81 35 is_stmt 0
 569 035c 97000000 		call	_ZN4List3getEv@plt
 569      E7800000 
 570              	.LVL54:
  82:src/TCB.cpp   ****         TCB::freeThread(t);
 571              		.loc 1 82 9 is_stmt 1
 572              		.loc 1 82 24 is_stmt 0
 573 0364 97000000 		call	_ZN3TCB10freeThreadEPS_
 573      E7800000 
 574              	.LVL55:
 575              	.LBE33:
  80:src/TCB.cpp   ****         TCB* t = TCB::garbage->get();
 576              		.loc 1 80 5
 577 036c 6FF01FFE 		j	.L36
 578              	.L35:
  83:src/TCB.cpp   ****     }
  84:src/TCB.cpp   ****     List::free(garbage);
 579              		.loc 1 84 5 is_stmt 1
 580              		.loc 1 84 15 is_stmt 0
 581 0370 97000000 		call	_ZN4List4freeEPS_@plt
 581      E7800000 
 582              	.LVL56:
  85:src/TCB.cpp   ****     freeThread(running);
 583              		.loc 1 85 5 is_stmt 1
 584              		.loc 1 85 15 is_stmt 0
 585 0378 17050000 		ld	a0,.LANCHOR0
 585      03350500 
 586 0380 97000000 		call	_ZN3TCB10freeThreadEPS_
 586      E7800000 
 587              	.LVL57:
  86:src/TCB.cpp   **** }
 588              		.loc 1 86 1
 589 0388 83308100 		ld	ra,8(sp)
 590              		.cfi_restore 1
 591 038c 03340100 		ld	s0,0(sp)
 592              		.cfi_restore 8
 593              		.cfi_def_cfa 2, 16
 594 0390 13010101 		addi	sp,sp,16
 595              		.cfi_def_cfa_offset 0
 596 0394 67800000 		jr	ra
 597              		.cfi_endproc
 598              	.LFE39:
 600              		.align	2
 601              		.globl	_ZN3TCB4joinEPS_m
 603              	_ZN3TCB4joinEPS_m:
 604              	.LFB40:
  87:src/TCB.cpp   **** 
  88:src/TCB.cpp   **** void TCB::join(TCB *t, time_t time) {
 605              		.loc 1 88 37 is_stmt 1
 606              		.cfi_startproc
 607              	.LVL58:
 608 0398 130101FE 		addi	sp,sp,-32
 609              		.cfi_def_cfa_offset 32
 610 039c 233C1100 		sd	ra,24(sp)
GAS LISTING /tmp/ccwUsl3v.s 			page 16


 611 03a0 23388100 		sd	s0,16(sp)
 612 03a4 23349100 		sd	s1,8(sp)
 613              		.cfi_offset 1, -8
 614              		.cfi_offset 8, -16
 615              		.cfi_offset 9, -24
 616 03a8 13040102 		addi	s0,sp,32
 617              		.cfi_def_cfa 8, 0
 618 03ac 93040500 		mv	s1,a0
  89:src/TCB.cpp   ****     if(time == 0) {
 619              		.loc 1 89 5
 620 03b0 639C0500 		bnez	a1,.L39
 621              	.LVL59:
 622              	.L41:
  90:src/TCB.cpp   ****         while (!t->isFinished())
 623              		.loc 1 90 9
 624              		.loc 1 90 16
 625              	.LBB34:
 626              	.LBB35:
  12:src/../h/TCB.hpp **** 
 627              		.loc 2 12 31
  12:src/../h/TCB.hpp **** 
 628              		.loc 2 12 38 is_stmt 0
 629 03b4 83C78402 		lbu	a5,40(s1)
 630              	.LVL60:
 631              	.LBE35:
 632              	.LBE34:
 633              		.loc 1 90 16
 634 03b8 63900702 		bnez	a5,.L38
  91:src/TCB.cpp   ****             TCB::dispatch();
 635              		.loc 1 91 13 is_stmt 1
 636              		.loc 1 91 26 is_stmt 0
 637 03bc 97000000 		call	_ZN3TCB8dispatchEv
 637      E7800000 
 638              	.LVL61:
  90:src/TCB.cpp   ****         while (!t->isFinished())
 639              		.loc 1 90 9
 640 03c4 6FF01FFF 		j	.L41
 641              	.LVL62:
 642              	.L39:
 643 03c8 13850500 		mv	a0,a1
  92:src/TCB.cpp   ****     }
  93:src/TCB.cpp   ****     else{
  94:src/TCB.cpp   ****         sleep(time, t);
 644              		.loc 1 94 9 is_stmt 1
 645              		.loc 1 94 14 is_stmt 0
 646 03cc 93850400 		mv	a1,s1
 647              	.LVL63:
 648 03d0 97000000 		call	_ZN3TCB5sleepEmPS_
 648      E7800000 
 649              	.LVL64:
 650              	.L38:
  95:src/TCB.cpp   ****     }
  96:src/TCB.cpp   **** }
 651              		.loc 1 96 1
 652 03d8 83308101 		ld	ra,24(sp)
 653              		.cfi_restore 1
 654 03dc 03340101 		ld	s0,16(sp)
GAS LISTING /tmp/ccwUsl3v.s 			page 17


 655              		.cfi_restore 8
 656              		.cfi_def_cfa 2, 32
 657 03e0 83348100 		ld	s1,8(sp)
 658              		.cfi_restore 9
 659              	.LVL65:
 660 03e4 13010102 		addi	sp,sp,32
 661              		.cfi_def_cfa_offset 0
 662 03e8 67800000 		jr	ra
 663              		.cfi_endproc
 664              	.LFE40:
 666              		.globl	_ZN3TCB10fatalErrorE
 667              		.globl	_ZN3TCB16timeSliceCounterE
 668              		.globl	_ZN3TCB7garbageE
 669              		.globl	_ZN3TCB7runningE
 670              		.bss
 671              		.align	3
 672              		.set	.LANCHOR0,. + 0
 675              	_ZN3TCB7runningE:
 676 0000 00000000 		.zero	8
 676      00000000 
 679              	_ZN3TCB10fatalErrorE:
 680 0008 00       		.zero	1
 681 0009 00000000 		.zero	7
 681      000000
 684              	_ZN3TCB7garbageE:
 685 0010 00000000 		.zero	8
 685      00000000 
 688              	_ZN3TCB16timeSliceCounterE:
 689 0018 00000000 		.zero	8
 689      00000000 
 690              		.text
 691              	.Letext0:
 692              		.file 4 "src/../h/../lib/hw.h"
 693              		.file 5 "src/../h/Riscv.h"
 694              		.file 6 "src/../h/Scheduler.hpp"
 695              		.file 7 "src/../h/MemoryAllocator.hpp"
 696              		.file 8 "src/../h/Sleeping.hpp"
 697              		.file 9 "src/../h/syscall_c.hpp"
GAS LISTING /tmp/ccwUsl3v.s 			page 18


DEFINED SYMBOLS
                            *ABS*:0000000000000000 TCB.cpp
     /tmp/ccwUsl3v.s:9      .text:0000000000000000 _ZN3TCB7wrapperEv
     /tmp/ccwUsl3v.s:13     .text:0000000000000000 .L0 
     /tmp/ccwUsl3v.s:14     .text:0000000000000000 .L0 
     /tmp/ccwUsl3v.s:15     .text:0000000000000004 .L0 
     /tmp/ccwUsl3v.s:19     .text:0000000000000010 .L0 
     /tmp/ccwUsl3v.s:20     .text:0000000000000010 .L0 
     /tmp/ccwUsl3v.s:21     .text:0000000000000010 .L0 
     /tmp/ccwUsl3v.s:23     .text:0000000000000014 .L0 
     /tmp/ccwUsl3v.s:25     .text:0000000000000014 .L0 
     /tmp/ccwUsl3v.s:26     .text:0000000000000014 .L0 
     /tmp/ccwUsl3v.s:29     .text:0000000000000020 .L0 
     /tmp/ccwUsl3v.s:32     .text:0000000000000024 .L0 
     /tmp/ccwUsl3v.s:33     .text:0000000000000024 .L0 
     /tmp/ccwUsl3v.s:37     .text:0000000000000034 .L0 
     /tmp/ccwUsl3v.s:41     .text:000000000000003c .L0 
     /tmp/ccwUsl3v.s:42     .text:000000000000003c .L0 
     /tmp/ccwUsl3v.s:48     .text:0000000000000040 .L0 
     /tmp/ccwUsl3v.s:49     .text:0000000000000040 .L0 
     /tmp/ccwUsl3v.s:55     .text:0000000000000048 .L0 
     /tmp/ccwUsl3v.s:56     .text:0000000000000048 .L0 
     /tmp/ccwUsl3v.s:59     .text:0000000000000050 .L0 
     /tmp/ccwUsl3v.s:60     .text:0000000000000050 .L0 
     /tmp/ccwUsl3v.s:63     .text:0000000000000058 .L0 
     /tmp/ccwUsl3v.s:64     .text:000000000000005c .L0 
     /tmp/ccwUsl3v.s:65     .text:000000000000005c .L0 
     /tmp/ccwUsl3v.s:67     .text:0000000000000060 .L0 
     /tmp/ccwUsl3v.s:68     .text:0000000000000060 .L0 
     /tmp/ccwUsl3v.s:70     .text:0000000000000064 .L0 
     /tmp/ccwUsl3v.s:72     .text:0000000000000068 .L0 
     /tmp/ccwUsl3v.s:75     .text:000000000000006c .L0 
     /tmp/ccwUsl3v.s:77     .text:000000000000006c .L0 
     /tmp/ccwUsl3v.s:78     .text:000000000000006c .L0 
     /tmp/ccwUsl3v.s:81     .text:0000000000000078 .L0 
     /tmp/ccwUsl3v.s:87     .text:0000000000000078 _ZN3TCB8dispatchEv
     /tmp/ccwUsl3v.s:90     .text:0000000000000078 .L0 
     /tmp/ccwUsl3v.s:91     .text:0000000000000078 .L0 
     /tmp/ccwUsl3v.s:92     .text:000000000000007c .L0 
     /tmp/ccwUsl3v.s:97     .text:000000000000008c .L0 
     /tmp/ccwUsl3v.s:98     .text:000000000000008c .L0 
     /tmp/ccwUsl3v.s:99     .text:000000000000008c .L0 
     /tmp/ccwUsl3v.s:100    .text:000000000000008c .L0 
     /tmp/ccwUsl3v.s:102    .text:0000000000000090 .L0 
     /tmp/ccwUsl3v.s:104    .text:0000000000000090 .L0 
     /tmp/ccwUsl3v.s:105    .text:0000000000000090 .L0 
     /tmp/ccwUsl3v.s:110    .text:0000000000000098 .L0 
     /tmp/ccwUsl3v.s:111    .text:0000000000000098 .L0 
     /tmp/ccwUsl3v.s:112    .text:0000000000000098 .L0 
     /tmp/ccwUsl3v.s:117    .text:000000000000009c .L0 
     /tmp/ccwUsl3v.s:122    .text:00000000000000a0 .L0 
     /tmp/ccwUsl3v.s:123    .text:00000000000000a0 .L0 
     /tmp/ccwUsl3v.s:128    .text:00000000000000a4 .L0 
     /tmp/ccwUsl3v.s:133    .text:00000000000000a8 .L0 
     /tmp/ccwUsl3v.s:134    .text:00000000000000a8 .L0 
     /tmp/ccwUsl3v.s:139    .text:00000000000000ac .L0 
     /tmp/ccwUsl3v.s:142    .text:00000000000000b0 .L0 
GAS LISTING /tmp/ccwUsl3v.s 			page 19


     /tmp/ccwUsl3v.s:143    .text:00000000000000b0 .L0 
     /tmp/ccwUsl3v.s:146    .text:00000000000000b8 .L0 
     /tmp/ccwUsl3v.s:149    .text:00000000000000c4 .L0 
     /tmp/ccwUsl3v.s:153    .text:00000000000000cc .L0 
     /tmp/ccwUsl3v.s:154    .text:00000000000000cc .L0 
     /tmp/ccwUsl3v.s:155    .text:00000000000000cc .L0 
     /tmp/ccwUsl3v.s:158    .text:00000000000000d8 .L0 
     /tmp/ccwUsl3v.s:160    .text:00000000000000dc .L0 
     /tmp/ccwUsl3v.s:161    .text:00000000000000dc .L0 
     /tmp/ccwUsl3v.s:166    .text:00000000000000f0 .L0 
     /tmp/ccwUsl3v.s:167    .text:00000000000000f0 .L0 
     /tmp/ccwUsl3v.s:169    .text:00000000000000f4 .L0 
     /tmp/ccwUsl3v.s:172    .text:00000000000000fc .L0 
     /tmp/ccwUsl3v.s:173    .text:00000000000000fc .L0 
     /tmp/ccwUsl3v.s:176    .text:0000000000000104 .L0 
     /tmp/ccwUsl3v.s:178    .text:0000000000000108 .L0 
     /tmp/ccwUsl3v.s:181    .text:000000000000010c .L0 
     /tmp/ccwUsl3v.s:182    .text:000000000000010c .L0 
     /tmp/ccwUsl3v.s:191    .text:000000000000011c .L0 
     /tmp/ccwUsl3v.s:192    .text:000000000000011c .L0 
     /tmp/ccwUsl3v.s:193    .text:000000000000011c .L0 
     /tmp/ccwUsl3v.s:198    .text:0000000000000120 .L0 
     /tmp/ccwUsl3v.s:201    .text:0000000000000124 .L0 
     /tmp/ccwUsl3v.s:202    .text:0000000000000124 .L0 
     /tmp/ccwUsl3v.s:204    .text:000000000000012c .L0 
     /tmp/ccwUsl3v.s:206    .text:0000000000000130 .L0 
     /tmp/ccwUsl3v.s:207    .text:0000000000000130 .L0 
     /tmp/ccwUsl3v.s:209    .text:0000000000000138 .L0 
     /tmp/ccwUsl3v.s:210    .text:0000000000000138 .L0 
     /tmp/ccwUsl3v.s:216    .text:0000000000000148 .L0 
     /tmp/ccwUsl3v.s:217    .text:000000000000014c .L0 
     /tmp/ccwUsl3v.s:218    .text:000000000000014c .L0 
     /tmp/ccwUsl3v.s:220    .text:0000000000000150 .L0 
     /tmp/ccwUsl3v.s:221    .text:0000000000000150 .L0 
     /tmp/ccwUsl3v.s:223    .text:0000000000000154 .L0 
     /tmp/ccwUsl3v.s:225    .text:0000000000000158 .L0 
     /tmp/ccwUsl3v.s:228    .text:000000000000015c .L0 
     /tmp/ccwUsl3v.s:232    .text:0000000000000160 .L0 
     /tmp/ccwUsl3v.s:234    .text:0000000000000160 .L0 
     /tmp/ccwUsl3v.s:235    .text:0000000000000160 .L0 
     /tmp/ccwUsl3v.s:240    .text:0000000000000178 .L0 
     /tmp/ccwUsl3v.s:246    .text:0000000000000178 _ZN3TCB10initializeEPFvPvES0_S0_
     /tmp/ccwUsl3v.s:249    .text:0000000000000178 .L0 
     /tmp/ccwUsl3v.s:251    .text:0000000000000178 .L0 
     /tmp/ccwUsl3v.s:252    .text:0000000000000178 .L0 
     /tmp/ccwUsl3v.s:253    .text:0000000000000178 .L0 
     /tmp/ccwUsl3v.s:255    .text:000000000000017c .L0 
     /tmp/ccwUsl3v.s:256    .text:000000000000017c .L0 
     /tmp/ccwUsl3v.s:258    .text:0000000000000180 .L0 
     /tmp/ccwUsl3v.s:259    .text:0000000000000180 .L0 
     /tmp/ccwUsl3v.s:262    .text:0000000000000188 .L0 
     /tmp/ccwUsl3v.s:263    .text:0000000000000188 .L0 
     /tmp/ccwUsl3v.s:265    .text:000000000000018c .L0 
     /tmp/ccwUsl3v.s:266    .text:000000000000018c .L0 
     /tmp/ccwUsl3v.s:269    .text:0000000000000194 .L0 
     /tmp/ccwUsl3v.s:270    .text:0000000000000194 .L0 
     /tmp/ccwUsl3v.s:272    .text:0000000000000198 .L0 
GAS LISTING /tmp/ccwUsl3v.s 			page 20


     /tmp/ccwUsl3v.s:273    .text:0000000000000198 .L0 
     /tmp/ccwUsl3v.s:275    .text:000000000000019c .L0 
     /tmp/ccwUsl3v.s:276    .text:000000000000019c .L0 
     /tmp/ccwUsl3v.s:278    .text:00000000000001a0 .L0 
     /tmp/ccwUsl3v.s:279    .text:00000000000001a0 .L0 
     /tmp/ccwUsl3v.s:281    .text:00000000000001a4 .L0 
     /tmp/ccwUsl3v.s:284    .text:00000000000001ac .L0 
     /tmp/ccwUsl3v.s:286    .text:00000000000001b0 .L0 
     /tmp/ccwUsl3v.s:287    .text:00000000000001b0 .L0 
     /tmp/ccwUsl3v.s:289    .text:00000000000001b4 .L0 
     /tmp/ccwUsl3v.s:294    .text:00000000000001bc .L0 
     /tmp/ccwUsl3v.s:296    .text:00000000000001c0 .L0 
     /tmp/ccwUsl3v.s:298    .text:00000000000001c4 .L0 
     /tmp/ccwUsl3v.s:299    .text:00000000000001c8 .L0 
     /tmp/ccwUsl3v.s:303    .text:00000000000001d0 .L0 
     /tmp/ccwUsl3v.s:304    .text:00000000000001d0 .L0 
     /tmp/ccwUsl3v.s:306    .text:00000000000001d4 .L0 
     /tmp/ccwUsl3v.s:308    .text:00000000000001d4 .L0 
     /tmp/ccwUsl3v.s:309    .text:00000000000001d4 .L0 
     /tmp/ccwUsl3v.s:312    .text:00000000000001dc .L0 
     /tmp/ccwUsl3v.s:313    .text:00000000000001e0 .L0 
     /tmp/ccwUsl3v.s:315    .text:00000000000001e4 .L0 
     /tmp/ccwUsl3v.s:316    .text:00000000000001e4 .L0 
     /tmp/ccwUsl3v.s:318    .text:00000000000001e8 .L0 
     /tmp/ccwUsl3v.s:323    .text:00000000000001ec .L0 
     /tmp/ccwUsl3v.s:327    .text:00000000000001f4 .L0 
     /tmp/ccwUsl3v.s:332    .text:0000000000000200 .L0 
     /tmp/ccwUsl3v.s:338    .text:0000000000000200 _ZN3TCB12createThreadEPFvPvES0_S0_
     /tmp/ccwUsl3v.s:341    .text:0000000000000200 .L0 
     /tmp/ccwUsl3v.s:343    .text:0000000000000200 .L0 
     /tmp/ccwUsl3v.s:344    .text:0000000000000204 .L0 
     /tmp/ccwUsl3v.s:351    .text:000000000000021c .L0 
     /tmp/ccwUsl3v.s:352    .text:000000000000021c .L0 
     /tmp/ccwUsl3v.s:353    .text:000000000000021c .L0 
     /tmp/ccwUsl3v.s:354    .text:000000000000021c .L0 
     /tmp/ccwUsl3v.s:355    .text:000000000000021c .L0 
     /tmp/ccwUsl3v.s:356    .text:000000000000021c .L0 
     /tmp/ccwUsl3v.s:358    .text:0000000000000220 .L0 
     /tmp/ccwUsl3v.s:363    .text:000000000000022c .L0 
     /tmp/ccwUsl3v.s:364    .text:000000000000022c .L0 
     /tmp/ccwUsl3v.s:371    .text:000000000000023c .L0 
     /tmp/ccwUsl3v.s:372    .text:000000000000023c .L0 
     /tmp/ccwUsl3v.s:378    .text:0000000000000250 .L0 
     /tmp/ccwUsl3v.s:379    .text:0000000000000250 .L0 
     /tmp/ccwUsl3v.s:381    .text:0000000000000258 .L0 
     /tmp/ccwUsl3v.s:384    .text:000000000000025c .L0 
     /tmp/ccwUsl3v.s:386    .text:0000000000000264 .L0 
     /tmp/ccwUsl3v.s:387    .text:0000000000000264 .L0 
     /tmp/ccwUsl3v.s:389    .text:0000000000000268 .L0 
     /tmp/ccwUsl3v.s:390    .text:0000000000000268 .L0 
     /tmp/ccwUsl3v.s:392    .text:000000000000026c .L0 
     /tmp/ccwUsl3v.s:395    .text:0000000000000270 .L0 
     /tmp/ccwUsl3v.s:398    .text:0000000000000274 .L0 
     /tmp/ccwUsl3v.s:401    .text:0000000000000278 .L0 
     /tmp/ccwUsl3v.s:404    .text:000000000000027c .L0 
     /tmp/ccwUsl3v.s:408    .text:0000000000000280 .L0 
     /tmp/ccwUsl3v.s:410    .text:0000000000000280 .L0 
GAS LISTING /tmp/ccwUsl3v.s 			page 21


     /tmp/ccwUsl3v.s:411    .text:0000000000000280 .L0 
     /tmp/ccwUsl3v.s:414    .text:0000000000000288 .L0 
     /tmp/ccwUsl3v.s:416    .text:0000000000000290 .L0 
     /tmp/ccwUsl3v.s:417    .text:0000000000000290 .L0 
     /tmp/ccwUsl3v.s:418    .text:0000000000000294 .L0 
     /tmp/ccwUsl3v.s:424    .text:0000000000000294 _ZN3TCB10freeThreadEPS_
     /tmp/ccwUsl3v.s:427    .text:0000000000000294 .L0 
     /tmp/ccwUsl3v.s:429    .text:0000000000000294 .L0 
     /tmp/ccwUsl3v.s:430    .text:0000000000000298 .L0 
     /tmp/ccwUsl3v.s:434    .text:00000000000002a4 .L0 
     /tmp/ccwUsl3v.s:435    .text:00000000000002a4 .L0 
     /tmp/ccwUsl3v.s:436    .text:00000000000002a4 .L0 
     /tmp/ccwUsl3v.s:438    .text:00000000000002a8 .L0 
     /tmp/ccwUsl3v.s:441    .text:00000000000002ac .L0 
     /tmp/ccwUsl3v.s:442    .text:00000000000002ac .L0 
     /tmp/ccwUsl3v.s:444    .text:00000000000002b4 .L0 
     /tmp/ccwUsl3v.s:447    .text:00000000000002b8 .L0 
     /tmp/ccwUsl3v.s:448    .text:00000000000002b8 .L0 
     /tmp/ccwUsl3v.s:453    .text:00000000000002c4 .L0 
     /tmp/ccwUsl3v.s:454    .text:00000000000002c4 .L0 
     /tmp/ccwUsl3v.s:458    .text:00000000000002d0 .L0 
     /tmp/ccwUsl3v.s:459    .text:00000000000002d4 .L0 
     /tmp/ccwUsl3v.s:460    .text:00000000000002d4 .L0 
     /tmp/ccwUsl3v.s:462    .text:00000000000002d8 .L0 
     /tmp/ccwUsl3v.s:463    .text:00000000000002d8 .L0 
     /tmp/ccwUsl3v.s:465    .text:00000000000002dc .L0 
     /tmp/ccwUsl3v.s:468    .text:00000000000002e0 .L0 
     /tmp/ccwUsl3v.s:472    .text:00000000000002e4 .L0 
     /tmp/ccwUsl3v.s:474    .text:00000000000002e4 .L0 
     /tmp/ccwUsl3v.s:475    .text:00000000000002e4 .L0 
     /tmp/ccwUsl3v.s:477    .text:00000000000002f0 .L0 
     /tmp/ccwUsl3v.s:483    .text:00000000000002f0 _ZN3TCB5sleepEmPS_
     /tmp/ccwUsl3v.s:486    .text:00000000000002f0 .L0 
     /tmp/ccwUsl3v.s:488    .text:00000000000002f0 .L0 
     /tmp/ccwUsl3v.s:489    .text:00000000000002f4 .L0 
     /tmp/ccwUsl3v.s:492    .text:00000000000002fc .L0 
     /tmp/ccwUsl3v.s:493    .text:00000000000002fc .L0 
     /tmp/ccwUsl3v.s:495    .text:0000000000000300 .L0 
     /tmp/ccwUsl3v.s:498    .text:0000000000000304 .L0 
     /tmp/ccwUsl3v.s:499    .text:0000000000000304 .L0 
     /tmp/ccwUsl3v.s:504    .text:000000000000030c .L0 
     /tmp/ccwUsl3v.s:505    .text:000000000000030c .L0 
     /tmp/ccwUsl3v.s:511    .text:0000000000000314 .L0 
     /tmp/ccwUsl3v.s:512    .text:0000000000000314 .L0 
     /tmp/ccwUsl3v.s:519    .text:0000000000000324 .L0 
     /tmp/ccwUsl3v.s:520    .text:0000000000000324 .L0 
     /tmp/ccwUsl3v.s:523    .text:000000000000032c .L0 
     /tmp/ccwUsl3v.s:524    .text:0000000000000330 .L0 
     /tmp/ccwUsl3v.s:526    .text:0000000000000334 .L0 
     /tmp/ccwUsl3v.s:527    .text:0000000000000334 .L0 
     /tmp/ccwUsl3v.s:529    .text:0000000000000338 .L0 
     /tmp/ccwUsl3v.s:531    .text:000000000000033c .L0 
     /tmp/ccwUsl3v.s:537    .text:000000000000033c _ZN3TCB11freeGarbageEv
     /tmp/ccwUsl3v.s:540    .text:000000000000033c .L0 
     /tmp/ccwUsl3v.s:541    .text:000000000000033c .L0 
     /tmp/ccwUsl3v.s:542    .text:0000000000000340 .L0 
     /tmp/ccwUsl3v.s:545    .text:0000000000000348 .L0 
GAS LISTING /tmp/ccwUsl3v.s 			page 22


     /tmp/ccwUsl3v.s:546    .text:0000000000000348 .L0 
     /tmp/ccwUsl3v.s:548    .text:000000000000034c .L0 
     /tmp/ccwUsl3v.s:551    .text:000000000000034c .L0 
     /tmp/ccwUsl3v.s:552    .text:000000000000034c .L0 
     /tmp/ccwUsl3v.s:553    .text:000000000000034c .L0 
     /tmp/ccwUsl3v.s:559    .text:0000000000000354 .L0 
     /tmp/ccwUsl3v.s:560    .text:0000000000000354 .L0 
     /tmp/ccwUsl3v.s:565    .text:0000000000000358 .L0 
     /tmp/ccwUsl3v.s:568    .text:000000000000035c .L0 
     /tmp/ccwUsl3v.s:569    .text:000000000000035c .L0 
     /tmp/ccwUsl3v.s:572    .text:0000000000000364 .L0 
     /tmp/ccwUsl3v.s:573    .text:0000000000000364 .L0 
     /tmp/ccwUsl3v.s:577    .text:000000000000036c .L0 
     /tmp/ccwUsl3v.s:580    .text:0000000000000370 .L0 
     /tmp/ccwUsl3v.s:581    .text:0000000000000370 .L0 
     /tmp/ccwUsl3v.s:584    .text:0000000000000378 .L0 
     /tmp/ccwUsl3v.s:585    .text:0000000000000378 .L0 
     /tmp/ccwUsl3v.s:589    .text:0000000000000388 .L0 
     /tmp/ccwUsl3v.s:590    .text:000000000000038c .L0 
     /tmp/ccwUsl3v.s:592    .text:0000000000000390 .L0 
     /tmp/ccwUsl3v.s:593    .text:0000000000000390 .L0 
     /tmp/ccwUsl3v.s:595    .text:0000000000000394 .L0 
     /tmp/ccwUsl3v.s:597    .text:0000000000000398 .L0 
     /tmp/ccwUsl3v.s:603    .text:0000000000000398 _ZN3TCB4joinEPS_m
     /tmp/ccwUsl3v.s:606    .text:0000000000000398 .L0 
     /tmp/ccwUsl3v.s:608    .text:0000000000000398 .L0 
     /tmp/ccwUsl3v.s:609    .text:000000000000039c .L0 
     /tmp/ccwUsl3v.s:613    .text:00000000000003a8 .L0 
     /tmp/ccwUsl3v.s:614    .text:00000000000003a8 .L0 
     /tmp/ccwUsl3v.s:615    .text:00000000000003a8 .L0 
     /tmp/ccwUsl3v.s:617    .text:00000000000003ac .L0 
     /tmp/ccwUsl3v.s:620    .text:00000000000003b0 .L0 
     /tmp/ccwUsl3v.s:624    .text:00000000000003b4 .L0 
     /tmp/ccwUsl3v.s:627    .text:00000000000003b4 .L0 
     /tmp/ccwUsl3v.s:628    .text:00000000000003b4 .L0 
     /tmp/ccwUsl3v.s:629    .text:00000000000003b4 .L0 
     /tmp/ccwUsl3v.s:634    .text:00000000000003b8 .L0 
     /tmp/ccwUsl3v.s:636    .text:00000000000003bc .L0 
     /tmp/ccwUsl3v.s:637    .text:00000000000003bc .L0 
     /tmp/ccwUsl3v.s:640    .text:00000000000003c4 .L0 
     /tmp/ccwUsl3v.s:645    .text:00000000000003cc .L0 
     /tmp/ccwUsl3v.s:646    .text:00000000000003cc .L0 
     /tmp/ccwUsl3v.s:652    .text:00000000000003d8 .L0 
     /tmp/ccwUsl3v.s:653    .text:00000000000003dc .L0 
     /tmp/ccwUsl3v.s:655    .text:00000000000003e0 .L0 
     /tmp/ccwUsl3v.s:656    .text:00000000000003e0 .L0 
     /tmp/ccwUsl3v.s:658    .text:00000000000003e4 .L0 
     /tmp/ccwUsl3v.s:661    .text:00000000000003e8 .L0 
     /tmp/ccwUsl3v.s:663    .text:00000000000003ec .L0 
     /tmp/ccwUsl3v.s:679    .bss:0000000000000008 _ZN3TCB10fatalErrorE
     /tmp/ccwUsl3v.s:688    .bss:0000000000000018 _ZN3TCB16timeSliceCounterE
     /tmp/ccwUsl3v.s:684    .bss:0000000000000010 _ZN3TCB7garbageE
     /tmp/ccwUsl3v.s:675    .bss:0000000000000000 _ZN3TCB7runningE
     /tmp/ccwUsl3v.s:672    .bss:0000000000000000 .LANCHOR0
     /tmp/ccwUsl3v.s:698    .text:00000000000003ec .L0 
     /tmp/ccwUsl3v.s:26     .text:0000000000000014 .L0 
     /tmp/ccwUsl3v.s:33     .text:0000000000000024 .L0 
GAS LISTING /tmp/ccwUsl3v.s 			page 23


     /tmp/ccwUsl3v.s:105    .text:0000000000000090 .L0 
     /tmp/ccwUsl3v.s:146    .text:00000000000000b8 .L0 
     /tmp/ccwUsl3v.s:155    .text:00000000000000cc .L0 
     /tmp/ccwUsl3v.s:161    .text:00000000000000dc .L0 
     /tmp/ccwUsl3v.s:202    .text:0000000000000124 .L0 
     /tmp/ccwUsl3v.s:207    .text:0000000000000130 .L0 
     /tmp/ccwUsl3v.s:236    .text:0000000000000164 .L0 
     /tmp/ccwUsl3v.s:281    .text:00000000000001a4 .L0 
     /tmp/ccwUsl3v.s:379    .text:0000000000000250 .L0 
     /tmp/ccwUsl3v.s:414    .text:0000000000000288 .L0 
     /tmp/ccwUsl3v.s:442    .text:00000000000002ac .L0 
     /tmp/ccwUsl3v.s:475    .text:00000000000002e4 .L0 
     /tmp/ccwUsl3v.s:499    .text:0000000000000304 .L0 
     /tmp/ccwUsl3v.s:553    .text:000000000000034c .L0 
     /tmp/ccwUsl3v.s:585    .text:0000000000000378 .L0 
     /tmp/ccwUsl3v.s:74     .text:000000000000006c .L4
     /tmp/ccwUsl3v.s:30     .text:0000000000000024 .L2
     /tmp/ccwUsl3v.s:140    .text:00000000000000b0 .L6
     /tmp/ccwUsl3v.s:179    .text:000000000000010c .L12
     /tmp/ccwUsl3v.s:186    .text:000000000000011c .L7
     /tmp/ccwUsl3v.s:151    .text:00000000000000cc .L8
     /tmp/ccwUsl3v.s:231    .text:0000000000000160 .L13
     /tmp/ccwUsl3v.s:214    .text:0000000000000148 .L5
     /tmp/ccwUsl3v.s:199    .text:0000000000000124 .L9
     /tmp/ccwUsl3v.s:321    .text:00000000000001ec .L18
     /tmp/ccwUsl3v.s:325    .text:00000000000001f4 .L19
     /tmp/ccwUsl3v.s:330    .text:00000000000001fc .L21
     /tmp/ccwUsl3v.s:282    .text:00000000000001ac .L15
     /tmp/ccwUsl3v.s:292    .text:00000000000001bc .L16
     /tmp/ccwUsl3v.s:407    .text:0000000000000280 .L27
     /tmp/ccwUsl3v.s:382    .text:000000000000025c .L24
     /tmp/ccwUsl3v.s:471    .text:00000000000002e4 .L31
     /tmp/ccwUsl3v.s:445    .text:00000000000002b8 .L29
     /tmp/ccwUsl3v.s:578    .text:0000000000000370 .L35
     /tmp/ccwUsl3v.s:549    .text:000000000000034c .L36
     /tmp/ccwUsl3v.s:642    .text:00000000000003c8 .L39
     /tmp/ccwUsl3v.s:650    .text:00000000000003d8 .L38
     /tmp/ccwUsl3v.s:622    .text:00000000000003b4 .L41
     /tmp/ccwUsl3v.s:2421   .debug_abbrev:0000000000000000 .Ldebug_abbrev0
     /tmp/ccwUsl3v.s:4095   .debug_str:0000000000000921 .LASF165
     /tmp/ccwUsl3v.s:3873   .debug_str:0000000000000232 .LASF166
     /tmp/ccwUsl3v.s:3937   .debug_str:000000000000045b .LASF167
     /tmp/ccwUsl3v.s:5      .text:0000000000000000 .Ltext0
     /tmp/ccwUsl3v.s:691    .text:00000000000003ec .Letext0
     /tmp/ccwUsl3v.s:3801   .debug_line:0000000000000000 .Ldebug_line0
     /tmp/ccwUsl3v.s:3931   .debug_str:0000000000000441 .LASF0
     /tmp/ccwUsl3v.s:3959   .debug_str:0000000000000536 .LASF1
     /tmp/ccwUsl3v.s:4043   .debug_str:00000000000007a6 .LASF2
     /tmp/ccwUsl3v.s:3883   .debug_str:000000000000027a .LASF3
     /tmp/ccwUsl3v.s:4049   .debug_str:00000000000007d9 .LASF4
     /tmp/ccwUsl3v.s:3941   .debug_str:0000000000000493 .LASF5
     /tmp/ccwUsl3v.s:3811   .debug_str:0000000000000082 .LASF6
     /tmp/ccwUsl3v.s:4025   .debug_str:0000000000000738 .LASF7
     /tmp/ccwUsl3v.s:4013   .debug_str:00000000000006e4 .LASF8
     /tmp/ccwUsl3v.s:3951   .debug_str:000000000000050c .LASF9
     /tmp/ccwUsl3v.s:3905   .debug_str:0000000000000321 .LASF10
     /tmp/ccwUsl3v.s:3911   .debug_str:0000000000000365 .LASF11
GAS LISTING /tmp/ccwUsl3v.s 			page 24


     /tmp/ccwUsl3v.s:3831   .debug_str:000000000000011a .LASF12
     /tmp/ccwUsl3v.s:3893   .debug_str:00000000000002e9 .LASF13
     /tmp/ccwUsl3v.s:3847   .debug_str:000000000000018c .LASF14
     /tmp/ccwUsl3v.s:3829   .debug_str:000000000000010a .LASF15
     /tmp/ccwUsl3v.s:4073   .debug_str:0000000000000899 .LASF16
     /tmp/ccwUsl3v.s:4075   .debug_str:00000000000008a5 .LASF17
     /tmp/ccwUsl3v.s:4063   .debug_str:000000000000083f .LASF18
     /tmp/ccwUsl3v.s:3991   .debug_str:000000000000065d .LASF24
     /tmp/ccwUsl3v.s:3859   .debug_str:00000000000001e7 .LASF25
     /tmp/ccwUsl3v.s:3833   .debug_str:0000000000000129 .LASF19
     /tmp/ccwUsl3v.s:4041   .debug_str:000000000000079f .LASF20
     /tmp/ccwUsl3v.s:4157   .debug_str:0000000000000bd4 .LASF52
     /tmp/ccwUsl3v.s:4155   .debug_str:0000000000000bc2 .LASF54
     /tmp/ccwUsl3v.s:4127   .debug_str:0000000000000adc .LASF168
     /tmp/ccwUsl3v.s:4067   .debug_str:0000000000000878 .LASF169
     /tmp/ccwUsl3v.s:3869   .debug_str:000000000000021b .LASF21
     /tmp/ccwUsl3v.s:4103   .debug_str:0000000000000a17 .LASF28
     /tmp/ccwUsl3v.s:4111   .debug_str:0000000000000a5a .LASF46
     /tmp/ccwUsl3v.s:3943   .debug_str:00000000000004a5 .LASF48
     /tmp/ccwUsl3v.s:4069   .debug_str:0000000000000887 .LASF22
     /tmp/ccwUsl3v.s:3999   .debug_str:000000000000068e .LASF23
     /tmp/ccwUsl3v.s:4079   .debug_str:00000000000008c4 .LASF26
     /tmp/ccwUsl3v.s:4081   .debug_str:00000000000008cc .LASF27
     /tmp/ccwUsl3v.s:3997   .debug_str:0000000000000677 .LASF29
     /tmp/ccwUsl3v.s:3823   .debug_str:00000000000000ea .LASF30
     /tmp/ccwUsl3v.s:4113   .debug_str:0000000000000a5f .LASF32
     /tmp/ccwUsl3v.s:4107   .debug_str:0000000000000a46 .LASF31
     /tmp/ccwUsl3v.s:4005   .debug_str:00000000000006aa .LASF33
     /tmp/ccwUsl3v.s:3993   .debug_str:0000000000000662 .LASF34
     /tmp/ccwUsl3v.s:3861   .debug_str:00000000000001ec .LASF35
     /tmp/ccwUsl3v.s:4053   .debug_str:00000000000007f9 .LASF36
     /tmp/ccwUsl3v.s:4117   .debug_str:0000000000000a8b .LASF37
     /tmp/ccwUsl3v.s:3973   .debug_str:00000000000005a9 .LASF38
     /tmp/ccwUsl3v.s:3965   .debug_str:0000000000000561 .LASF39
     /tmp/ccwUsl3v.s:3815   .debug_str:000000000000009b .LASF40
     /tmp/ccwUsl3v.s:3987   .debug_str:000000000000061f .LASF41
     /tmp/ccwUsl3v.s:3967   .debug_str:0000000000000575 .LASF42
     /tmp/ccwUsl3v.s:4121   .debug_str:0000000000000ab1 .LASF43
     /tmp/ccwUsl3v.s:4071   .debug_str:000000000000088c .LASF44
     /tmp/ccwUsl3v.s:3915   .debug_str:000000000000038c .LASF45
     /tmp/ccwUsl3v.s:4007   .debug_str:00000000000006c1 .LASF170
     /tmp/ccwUsl3v.s:4149   .debug_str:0000000000000ba0 .LASF47
     /tmp/ccwUsl3v.s:4093   .debug_str:0000000000000909 .LASF49
     /tmp/ccwUsl3v.s:3899   .debug_str:0000000000000309 .LASF171
     /tmp/ccwUsl3v.s:3963   .debug_str:000000000000055b .LASF50
     /tmp/ccwUsl3v.s:3939   .debug_str:0000000000000480 .LASF51
     /tmp/ccwUsl3v.s:3895   .debug_str:00000000000002f8 .LASF78
     /tmp/ccwUsl3v.s:3819   .debug_str:00000000000000c2 .LASF80
     /tmp/ccwUsl3v.s:4029   .debug_str:0000000000000757 .LASF53
     /tmp/ccwUsl3v.s:3877   .debug_str:0000000000000254 .LASF55
     /tmp/ccwUsl3v.s:4087   .debug_str:00000000000008eb .LASF56
     /tmp/ccwUsl3v.s:3849   .debug_str:000000000000019c .LASF57
     /tmp/ccwUsl3v.s:4159   .debug_str:0000000000000bdb .LASF73
     /tmp/ccwUsl3v.s:3867   .debug_str:0000000000000212 .LASF60
     /tmp/ccwUsl3v.s:3839   .debug_str:000000000000015c .LASF62
     /tmp/ccwUsl3v.s:4059   .debug_str:000000000000082b .LASF58
     /tmp/ccwUsl3v.s:3803   .debug_str:0000000000000000 .LASF59
GAS LISTING /tmp/ccwUsl3v.s 			page 25


     /tmp/ccwUsl3v.s:4125   .debug_str:0000000000000ad4 .LASF61
     /tmp/ccwUsl3v.s:3813   .debug_str:0000000000000089 .LASF63
     /tmp/ccwUsl3v.s:3865   .debug_str:000000000000020d .LASF64
     /tmp/ccwUsl3v.s:4147   .debug_str:0000000000000b9b .LASF65
     /tmp/ccwUsl3v.s:3979   .debug_str:00000000000005ce .LASF66
     /tmp/ccwUsl3v.s:4109   .debug_str:0000000000000a52 .LASF67
     /tmp/ccwUsl3v.s:4061   .debug_str:0000000000000836 .LASF68
     /tmp/ccwUsl3v.s:3935   .debug_str:0000000000000454 .LASF69
     /tmp/ccwUsl3v.s:4101   .debug_str:0000000000000a0d .LASF70
     /tmp/ccwUsl3v.s:4077   .debug_str:00000000000008bb .LASF71
     /tmp/ccwUsl3v.s:4031   .debug_str:000000000000075d .LASF72
     /tmp/ccwUsl3v.s:4137   .debug_str:0000000000000b48 .LASF74
     /tmp/ccwUsl3v.s:4055   .debug_str:0000000000000802 .LASF75
     /tmp/ccwUsl3v.s:3853   .debug_str:00000000000001b9 .LASF172
     /tmp/ccwUsl3v.s:3807   .debug_str:0000000000000041 .LASF173
     /tmp/ccwUsl3v.s:3977   .debug_str:00000000000005c9 .LASF76
     /tmp/ccwUsl3v.s:4129   .debug_str:0000000000000aef .LASF77
     /tmp/ccwUsl3v.s:3921   .debug_str:00000000000003db .LASF79
     /tmp/ccwUsl3v.s:3929   .debug_str:0000000000000429 .LASF81
     /tmp/ccwUsl3v.s:4135   .debug_str:0000000000000b39 .LASF82
     /tmp/ccwUsl3v.s:3909   .debug_str:0000000000000349 .LASF83
     /tmp/ccwUsl3v.s:4015   .debug_str:00000000000006f7 .LASF84
     /tmp/ccwUsl3v.s:3907   .debug_str:0000000000000331 .LASF85
     /tmp/ccwUsl3v.s:4003   .debug_str:000000000000069e .LASF86
     /tmp/ccwUsl3v.s:3835   .debug_str:000000000000012e .LASF87
     /tmp/ccwUsl3v.s:3845   .debug_str:0000000000000183 .LASF88
     /tmp/ccwUsl3v.s:3837   .debug_str:0000000000000147 .LASF89
     /tmp/ccwUsl3v.s:4123   .debug_str:0000000000000aca .LASF90
     /tmp/ccwUsl3v.s:3875   .debug_str:000000000000023e .LASF91
     /tmp/ccwUsl3v.s:4089   .debug_str:00000000000008f0 .LASF92
     /tmp/ccwUsl3v.s:3809   .debug_str:0000000000000069 .LASF93
     /tmp/ccwUsl3v.s:3879   .debug_str:0000000000000264 .LASF94
     /tmp/ccwUsl3v.s:4045   .debug_str:00000000000007b4 .LASF95
     /tmp/ccwUsl3v.s:3841   .debug_str:000000000000016f .LASF96
     /tmp/ccwUsl3v.s:3887   .debug_str:00000000000002ac .LASF97
     /tmp/ccwUsl3v.s:3851   .debug_str:00000000000001ae .LASF98
     /tmp/ccwUsl3v.s:4057   .debug_str:0000000000000813 .LASF99
     /tmp/ccwUsl3v.s:4039   .debug_str:0000000000000795 .LASF100
     /tmp/ccwUsl3v.s:3855   .debug_str:00000000000001c7 .LASF101
     /tmp/ccwUsl3v.s:4047   .debug_str:00000000000007ce .LASF102
     /tmp/ccwUsl3v.s:3917   .debug_str:00000000000003af .LASF103
     /tmp/ccwUsl3v.s:3933   .debug_str:000000000000044e .LASF104
     /tmp/ccwUsl3v.s:4119   .debug_str:0000000000000a9f .LASF105
     /tmp/ccwUsl3v.s:3825   .debug_str:00000000000000f6 .LASF106
     /tmp/ccwUsl3v.s:3961   .debug_str:0000000000000549 .LASF107
     /tmp/ccwUsl3v.s:3995   .debug_str:000000000000066d .LASF108
     /tmp/ccwUsl3v.s:3947   .debug_str:00000000000004d4 .LASF109
     /tmp/ccwUsl3v.s:3857   .debug_str:00000000000001dd .LASF110
     /tmp/ccwUsl3v.s:3925   .debug_str:00000000000003fb .LASF111
     /tmp/ccwUsl3v.s:4001   .debug_str:0000000000000693 .LASF112
     /tmp/ccwUsl3v.s:4027   .debug_str:000000000000073f .LASF113
     /tmp/ccwUsl3v.s:4037   .debug_str:000000000000078d .LASF114
     /tmp/ccwUsl3v.s:3919   .debug_str:00000000000003c7 .LASF115
     /tmp/ccwUsl3v.s:4019   .debug_str:0000000000000707 .LASF116
     /tmp/ccwUsl3v.s:3949   .debug_str:00000000000004ea .LASF117
     /tmp/ccwUsl3v.s:3903   .debug_str:0000000000000317 .LASF118
     /tmp/ccwUsl3v.s:3927   .debug_str:0000000000000411 .LASF146
GAS LISTING /tmp/ccwUsl3v.s 			page 26


     /tmp/ccwUsl3v.s:4143   .debug_str:0000000000000b82 .LASF148
     /tmp/ccwUsl3v.s:4139   .debug_str:0000000000000b50 .LASF119
     /tmp/ccwUsl3v.s:3901   .debug_str:0000000000000311 .LASF120
     /tmp/ccwUsl3v.s:3975   .debug_str:00000000000005b3 .LASF121
     /tmp/ccwUsl3v.s:4141   .debug_str:0000000000000b66 .LASF122
     /tmp/ccwUsl3v.s:4145   .debug_str:0000000000000b96 .LASF123
     /tmp/ccwUsl3v.s:4011   .debug_str:00000000000006d4 .LASF124
     /tmp/ccwUsl3v.s:4131   .debug_str:0000000000000af5 .LASF125
     /tmp/ccwUsl3v.s:3957   .debug_str:0000000000000531 .LASF126
     /tmp/ccwUsl3v.s:3817   .debug_str:00000000000000a9 .LASF127
     /tmp/ccwUsl3v.s:3955   .debug_str:0000000000000528 .LASF128
     /tmp/ccwUsl3v.s:3805   .debug_str:0000000000000021 .LASF129
     /tmp/ccwUsl3v.s:3945   .debug_str:00000000000004b7 .LASF130
     /tmp/ccwUsl3v.s:4091   .debug_str:00000000000008fc .LASF131
     /tmp/ccwUsl3v.s:3989   .debug_str:0000000000000638 .LASF132
     /tmp/ccwUsl3v.s:3891   .debug_str:00000000000002d5 .LASF133
     /tmp/ccwUsl3v.s:3885   .debug_str:0000000000000280 .LASF134
     /tmp/ccwUsl3v.s:4065   .debug_str:0000000000000855 .LASF135
     /tmp/ccwUsl3v.s:3971   .debug_str:000000000000059d .LASF174
     /tmp/ccwUsl3v.s:3981   .debug_str:00000000000005d4 .LASF175
     /tmp/ccwUsl3v.s:3985   .debug_str:00000000000005f7 .LASF176
     /tmp/ccwUsl3v.s:4023   .debug_str:0000000000000725 .LASF136
     /tmp/ccwUsl3v.s:4133   .debug_str:0000000000000afe .LASF137
     /tmp/ccwUsl3v.s:4009   .debug_str:00000000000006c6 .LASF138
     /tmp/ccwUsl3v.s:4021   .debug_str:000000000000071c .LASF139
     /tmp/ccwUsl3v.s:3863   .debug_str:0000000000000203 .LASF140
     /tmp/ccwUsl3v.s:3871   .debug_str:0000000000000221 .LASF141
     /tmp/ccwUsl3v.s:3881   .debug_str:0000000000000271 .LASF142
     /tmp/ccwUsl3v.s:4083   .debug_str:00000000000008d7 .LASF143
     /tmp/ccwUsl3v.s:4099   .debug_str:0000000000000a00 .LASF144
     /tmp/ccwUsl3v.s:3953   .debug_str:000000000000051f .LASF145
     /tmp/ccwUsl3v.s:4097   .debug_str:00000000000009e5 .LASF147
     /tmp/ccwUsl3v.s:3889   .debug_str:00000000000002c2 .LASF149
     /tmp/ccwUsl3v.s:3827   .debug_str:00000000000000fc .LASF150
     /tmp/ccwUsl3v.s:4105   .debug_str:0000000000000a28 .LASF151
     /tmp/ccwUsl3v.s:4035   .debug_str:0000000000000778 .LASF152
     /tmp/ccwUsl3v.s:3843   .debug_str:0000000000000179 .LASF153
     /tmp/ccwUsl3v.s:3913   .debug_str:0000000000000373 .LASF154
     /tmp/ccwUsl3v.s:3923   .debug_str:00000000000003e6 .LASF155
     /tmp/ccwUsl3v.s:4151   .debug_str:0000000000000bab .LASF156
     /tmp/ccwUsl3v.s:4051   .debug_str:00000000000007e0 .LASF157
     /tmp/ccwUsl3v.s:4085   .debug_str:00000000000008e6 .LASF158
     /tmp/ccwUsl3v.s:3821   .debug_str:00000000000000d9 .LASF159
     /tmp/ccwUsl3v.s:4153   .debug_str:0000000000000bb1 .LASF160
     /tmp/ccwUsl3v.s:3969   .debug_str:0000000000000582 .LASF161
     /tmp/ccwUsl3v.s:4115   .debug_str:0000000000000a76 .LASF162
     /tmp/ccwUsl3v.s:604    .text:0000000000000398 .LFB40
     /tmp/ccwUsl3v.s:664    .text:00000000000003ec .LFE40
     /tmp/ccwUsl3v.s:3430   .debug_loc:0000000000000000 .LLST22
     /tmp/ccwUsl3v.s:4017   .debug_str:0000000000000702 .LASF163
     /tmp/ccwUsl3v.s:3448   .debug_loc:000000000000004c .LLST23
     /tmp/ccwUsl3v.s:625    .text:00000000000003b4 .LBB34
     /tmp/ccwUsl3v.s:632    .text:00000000000003b8 .LBE34
     /tmp/ccwUsl3v.s:3477   .debug_loc:00000000000000c1 .LLST24
     /tmp/ccwUsl3v.s:638    .text:00000000000003c4 .LVL61
     /tmp/ccwUsl3v.s:649    .text:00000000000003d8 .LVL64
     /tmp/ccwUsl3v.s:538    .text:000000000000033c .LFB39
GAS LISTING /tmp/ccwUsl3v.s 			page 27


     /tmp/ccwUsl3v.s:598    .text:0000000000000398 .LFE39
     /tmp/ccwUsl3v.s:566    .text:000000000000035c .LBB33
     /tmp/ccwUsl3v.s:575    .text:000000000000036c .LBE33
     /tmp/ccwUsl3v.s:3484   .debug_loc:00000000000000e4 .LLST21
     /tmp/ccwUsl3v.s:570    .text:0000000000000364 .LVL54
     /tmp/ccwUsl3v.s:574    .text:000000000000036c .LVL55
     /tmp/ccwUsl3v.s:555    .text:0000000000000354 .LBB31
     /tmp/ccwUsl3v.s:563    .text:0000000000000358 .LBE31
     /tmp/ccwUsl3v.s:3491   .debug_loc:0000000000000107 .LLST20
     /tmp/ccwUsl3v.s:582    .text:0000000000000378 .LVL56
     /tmp/ccwUsl3v.s:587    .text:0000000000000388 .LVL57
     /tmp/ccwUsl3v.s:484    .text:00000000000002f0 .LFB38
     /tmp/ccwUsl3v.s:532    .text:000000000000033c .LFE38
     /tmp/ccwUsl3v.s:3498   .debug_loc:000000000000012a .LLST16
     /tmp/ccwUsl3v.s:3516   .debug_loc:0000000000000176 .LLST17
     /tmp/ccwUsl3v.s:501    .text:000000000000030c .LBB29
     /tmp/ccwUsl3v.s:509    .text:0000000000000314 .LBE29
     /tmp/ccwUsl3v.s:3534   .debug_loc:00000000000001c2 .LLST18
     /tmp/ccwUsl3v.s:3542   .debug_loc:00000000000001e6 .LLST19
     /tmp/ccwUsl3v.s:517    .text:0000000000000324 .LVL50
     /tmp/ccwUsl3v.s:521    .text:000000000000032c .LVL51
     /tmp/ccwUsl3v.s:425    .text:0000000000000294 .LFB37
     /tmp/ccwUsl3v.s:478    .text:00000000000002f0 .LFE37
     /tmp/ccwUsl3v.s:3549   .debug_loc:0000000000000209 .LLST15
     /tmp/ccwUsl3v.s:451    .text:00000000000002c4 .LVL41
     /tmp/ccwUsl3v.s:456    .text:00000000000002d0 .LVL42
     /tmp/ccwUsl3v.s:10     .text:0000000000000000 .LFB36
     /tmp/ccwUsl3v.s:82     .text:0000000000000078 .LFE36
     /tmp/ccwUsl3v.s:44     .text:0000000000000040 .LBB19
     /tmp/ccwUsl3v.s:53     .text:0000000000000048 .LBE19
     /tmp/ccwUsl3v.s:3571   .debug_loc:0000000000000268 .LLST0
     /tmp/ccwUsl3v.s:3579   .debug_loc:000000000000028c .LLST1
     /tmp/ccwUsl3v.s:57     .text:0000000000000050 .LVL3
     /tmp/ccwUsl3v.s:61     .text:0000000000000058 .LVL4
     /tmp/ccwUsl3v.s:79     .text:0000000000000074 .LVL5
     /tmp/ccwUsl3v.s:247    .text:0000000000000178 .LFB35
     /tmp/ccwUsl3v.s:333    .text:0000000000000200 .LFE35
     /tmp/ccwUsl3v.s:3897   .debug_str:0000000000000304 .LASF164
     /tmp/ccwUsl3v.s:3586   .debug_loc:00000000000002af .LLST7
     /tmp/ccwUsl3v.s:3604   .debug_loc:00000000000002fb .LLST8
     /tmp/ccwUsl3v.s:3622   .debug_loc:0000000000000347 .LLST9
     /tmp/ccwUsl3v.s:3640   .debug_loc:0000000000000393 .LLST10
     /tmp/ccwUsl3v.s:310    .text:00000000000001dc .LVL25
     /tmp/ccwUsl3v.s:339    .text:0000000000000200 .LFB34
     /tmp/ccwUsl3v.s:419    .text:0000000000000294 .LFE34
     /tmp/ccwUsl3v.s:3668   .debug_loc:0000000000000407 .LLST11
     /tmp/ccwUsl3v.s:3690   .debug_loc:0000000000000466 .LLST12
     /tmp/ccwUsl3v.s:3712   .debug_loc:00000000000004c5 .LLST13
     /tmp/ccwUsl3v.s:3734   .debug_loc:0000000000000524 .LLST14
     /tmp/ccwUsl3v.s:367    .text:0000000000000238 .LVL30
     /tmp/ccwUsl3v.s:376    .text:0000000000000250 .LVL32
     /tmp/ccwUsl3v.s:412    .text:0000000000000288 .LVL38
     /tmp/ccwUsl3v.s:88     .text:0000000000000078 .LFB33
     /tmp/ccwUsl3v.s:241    .text:0000000000000178 .LFE33
     /tmp/ccwUsl3v.s:3749   .debug_loc:000000000000056d .LLST2
     /tmp/ccwUsl3v.s:108    .text:0000000000000098 .LBB21
     /tmp/ccwUsl3v.s:115    .text:000000000000009c .LBE21
GAS LISTING /tmp/ccwUsl3v.s 			page 28


     /tmp/ccwUsl3v.s:3760   .debug_loc:00000000000005a3 .LLST3
     /tmp/ccwUsl3v.s:119    .text:00000000000000a0 .LBB23
     /tmp/ccwUsl3v.s:126    .text:00000000000000a4 .LBE23
     /tmp/ccwUsl3v.s:3767   .debug_loc:00000000000005c6 .LLST4
     /tmp/ccwUsl3v.s:130    .text:00000000000000a8 .LBB25
     /tmp/ccwUsl3v.s:137    .text:00000000000000ac .LBE25
     /tmp/ccwUsl3v.s:3774   .debug_loc:00000000000005e9 .LLST5
     /tmp/ccwUsl3v.s:189    .text:000000000000011c .LBB27
     /tmp/ccwUsl3v.s:196    .text:0000000000000120 .LBE27
     /tmp/ccwUsl3v.s:3781   .debug_loc:000000000000060c .LLST6
     /tmp/ccwUsl3v.s:144    .text:00000000000000b8 .LVL12
     /tmp/ccwUsl3v.s:164    .text:00000000000000f0 .LVL13
     /tmp/ccwUsl3v.s:174    .text:0000000000000104 .LVL14
     /tmp/ccwUsl3v.s:184    .text:0000000000000118 .LVL15
     /tmp/ccwUsl3v.s:213    .text:0000000000000148 .LVL18
     /tmp/ccwUsl3v.s:238    .text:0000000000000174 .LVL21
     /tmp/ccwUsl3v.s:3983   .debug_str:00000000000005e2 .LASF177
     /tmp/ccwUsl3v.s:4033   .debug_str:0000000000000768 .LASF178
     /tmp/ccwUsl3v.s:607    .text:0000000000000398 .LVL58
     /tmp/ccwUsl3v.s:621    .text:00000000000003b4 .LVL59
     /tmp/ccwUsl3v.s:659    .text:00000000000003e4 .LVL65
     /tmp/ccwUsl3v.s:641    .text:00000000000003c8 .LVL62
     /tmp/ccwUsl3v.s:647    .text:00000000000003d0 .LVL63
     /tmp/ccwUsl3v.s:630    .text:00000000000003b8 .LVL60
     /tmp/ccwUsl3v.s:554    .text:0000000000000354 .LVL52
     /tmp/ccwUsl3v.s:561    .text:0000000000000358 .LVL53
     /tmp/ccwUsl3v.s:487    .text:00000000000002f0 .LVL45
     /tmp/ccwUsl3v.s:515    .text:000000000000031c .LVL49
     /tmp/ccwUsl3v.s:513    .text:0000000000000318 .LVL48
     /tmp/ccwUsl3v.s:500    .text:000000000000030c .LVL46
     /tmp/ccwUsl3v.s:507    .text:0000000000000314 .LVL47
     /tmp/ccwUsl3v.s:428    .text:0000000000000294 .LVL39
     /tmp/ccwUsl3v.s:449    .text:00000000000002bc .LVL40
     /tmp/ccwUsl3v.s:466    .text:00000000000002dc .LVL43
     /tmp/ccwUsl3v.s:470    .text:00000000000002e4 .LVL44
     /tmp/ccwUsl3v.s:43     .text:0000000000000040 .LVL1
     /tmp/ccwUsl3v.s:51     .text:0000000000000048 .LVL2
     /tmp/ccwUsl3v.s:250    .text:0000000000000178 .LVL22
     /tmp/ccwUsl3v.s:320    .text:00000000000001ec .LVL26
     /tmp/ccwUsl3v.s:291    .text:00000000000001bc .LVL23
     /tmp/ccwUsl3v.s:301    .text:00000000000001cc .LVL24
     /tmp/ccwUsl3v.s:328    .text:00000000000001f8 .LVL27
     /tmp/ccwUsl3v.s:342    .text:0000000000000200 .LVL28
     /tmp/ccwUsl3v.s:365    .text:0000000000000230 .LVL29
     /tmp/ccwUsl3v.s:396    .text:0000000000000270 .LVL34
     /tmp/ccwUsl3v.s:406    .text:0000000000000280 .LVL37
     /tmp/ccwUsl3v.s:399    .text:0000000000000274 .LVL35
     /tmp/ccwUsl3v.s:402    .text:0000000000000278 .LVL36
     /tmp/ccwUsl3v.s:369    .text:000000000000023c .LVL31
     /tmp/ccwUsl3v.s:393    .text:000000000000026c .LVL33
     /tmp/ccwUsl3v.s:106    .text:0000000000000098 .LVL6
     /tmp/ccwUsl3v.s:226    .text:0000000000000158 .LVL19
     /tmp/ccwUsl3v.s:230    .text:0000000000000160 .LVL20
     /tmp/ccwUsl3v.s:113    .text:000000000000009c .LVL7
     /tmp/ccwUsl3v.s:118    .text:00000000000000a0 .LVL8
     /tmp/ccwUsl3v.s:124    .text:00000000000000a4 .LVL9
     /tmp/ccwUsl3v.s:129    .text:00000000000000a8 .LVL10
GAS LISTING /tmp/ccwUsl3v.s 			page 29


     /tmp/ccwUsl3v.s:135    .text:00000000000000ac .LVL11
     /tmp/ccwUsl3v.s:188    .text:000000000000011c .LVL16
     /tmp/ccwUsl3v.s:194    .text:0000000000000120 .LVL17
     /tmp/ccwUsl3v.s:699    .debug_info:0000000000000000 .Ldebug_info0

UNDEFINED SYMBOLS
_ZN8Sleeping5awakeEP3TCB
_Z15thread_dispatchv
_ZN5Riscv10popSppSpieEv
_ZN9Scheduler3getEv
_ZN4List3putEP3TCB
_ZN9Scheduler3putEP3TCB
_ZN3TCB13contextSwitchEPNS_7ContextES1_
_ZN15MemoryAllocator8allocateEm
_ZN4List6createEv
_ZN15MemoryAllocator4freeEPv
_ZN8Sleeping3putEP3TCBmS1_
_ZN4List3getEv
_ZN4List4freeEPS_
